
Discarded input sections

 .data          0x0000000000000000        0x0 arch/arm/cpu/armv8/start.o
 .bss           0x0000000000000000        0x0 arch/arm/cpu/armv8/start.o
 .text.set_pgtable_section
                0x0000000000000000       0x14 arch/arm/cpu/armv8/built-in.o
 .text.board_usb_stop
                0x0000000000000000       0x24 arch/arm/cpu/armv8/built-in.o
 .text.meson_trustzone_efuse_writepattern
                0x0000000000000000       0x48 arch/arm/cpu/armv8/built-in.o
 .text.meson_trustzone_efuse_check
                0x0000000000000000       0x3c arch/arm/cpu/armv8/built-in.o
 .text.debug_efuse_cmd
                0x0000000000000000        0x8 arch/arm/cpu/armv8/built-in.o
 .text.bl31_debug_efuse_write_pattern
                0x0000000000000000       0x60 arch/arm/cpu/armv8/built-in.o
 .text.bl31_debug_efuse_read_pattern
                0x0000000000000000       0x64 arch/arm/cpu/armv8/built-in.o
 .text.aml_get_reboot_reason
                0x0000000000000000       0x10 arch/arm/cpu/armv8/built-in.o
 .text.watchdog_init
                0x0000000000000000       0x4c arch/arm/cpu/armv8/built-in.o
 .text.watchdog_reset
                0x0000000000000000       0x10 arch/arm/cpu/armv8/built-in.o
 .text.watchdog_disable
                0x0000000000000000       0x24 arch/arm/cpu/armv8/built-in.o
 .text.hdmitx_poll_reg
                0x0000000000000000       0x5c arch/arm/cpu/armv8/built-in.o
 .text.thermal_get_value
                0x0000000000000000       0x88 arch/arm/cpu/armv8/built-in.o
 .text.bubble_sort
                0x0000000000000000       0x50 arch/arm/cpu/armv8/built-in.o
 .text.get_board_id
                0x0000000000000000       0xb4 arch/arm/cpu/armv8/built-in.o
 .rodata.sam_val
                0x0000000000000000       0x38 arch/arm/cpu/armv8/built-in.o
 .rodata.SAMP_COUNT
                0x0000000000000000        0x4 arch/arm/cpu/armv8/built-in.o
 .data          0x0000000000000000        0x0 arch/arm/cpu/armv8/built-in.o
 .bss           0x0000000000000000        0x0 arch/arm/cpu/armv8/built-in.o
 .bss.adc_sample
                0x0000000000000000       0x28 arch/arm/cpu/armv8/built-in.o
 .text.setup_board_tags
                0x0000000000000000        0x4 arch/arm/lib/built-in.o
 .text.flush_cache
                0x0000000000000000        0x4 arch/arm/lib/built-in.o
 .text.flush_dcache_all
                0x0000000000000000        0xc arch/arm/lib/built-in.o
 .text.enable_caches
                0x0000000000000000        0xc arch/arm/lib/built-in.o
 .data          0x0000000000000000        0x0 arch/arm/lib/built-in.o
 .__secure_start
                0x0000000000000000        0x0 arch/arm/lib/built-in.o
 .__end         0x0000000000000000        0x0 arch/arm/lib/built-in.o
 .__secure_end  0x0000000000000000        0x0 arch/arm/lib/built-in.o
 .bss           0x0000000000000000        0x0 arch/arm/lib/built-in.o
 .text          0x0000000000000000        0x0 board/amlogic/gxl_p212_v1/built-in.o
 .text.eth_board_setup
                0x0000000000000000       0x84 board/amlogic/gxl_p212_v1/built-in.o
 .data          0x0000000000000000        0x0 board/amlogic/gxl_p212_v1/built-in.o
 .bss           0x0000000000000000        0x0 board/amlogic/gxl_p212_v1/built-in.o
 .bss.eth_board_skt
                0x0000000000000000        0x8 board/amlogic/gxl_p212_v1/built-in.o
 .text          0x0000000000000000        0x0 common/built-in.o
 .text.hash_block
                0x0000000000000000       0x78 common/built-in.o
 .text.unset_local_var
                0x0000000000000000       0xc0 common/built-in.o
 .text.coloured_LED_init
                0x0000000000000000        0x4 common/built-in.o
 .text.red_led_on
                0x0000000000000000        0x4 common/built-in.o
 .text.red_led_off
                0x0000000000000000        0x4 common/built-in.o
 .text.green_led_on
                0x0000000000000000        0x4 common/built-in.o
 .text.green_led_off
                0x0000000000000000        0x4 common/built-in.o
 .text.yellow_led_on
                0x0000000000000000        0x4 common/built-in.o
 .text.yellow_led_off
                0x0000000000000000        0x4 common/built-in.o
 .text.blue_led_on
                0x0000000000000000        0x4 common/built-in.o
 .text.blue_led_off
                0x0000000000000000        0x4 common/built-in.o
 .text.board_flash_wp_on
                0x0000000000000000        0x8 common/built-in.o
 .text.fixup_cpu
                0x0000000000000000        0x8 common/built-in.o
 .text.env_flags_parse_varaccess_from_binflags
                0x0000000000000000       0x2c common/built-in.o
 .text.amlnand_env_int
                0x0000000000000000       0x1c common/built-in.o
 .text.mmc_env_init
                0x0000000000000000       0x1c common/built-in.o
 .text.gunzip_bmp
                0x0000000000000000        0x8 common/built-in.o
 .text.invalidate_icache_all
                0x0000000000000000        0xc common/built-in.o
 .text.flush_dcache_all
                0x0000000000000000        0xc common/built-in.o
 .text.get_source_key
                0x0000000000000000        0x4 common/built-in.o
 .text.of_bus_default_map
                0x0000000000000000       0x94 common/built-in.o
 .text.fdt_read_prop
                0x0000000000000000       0x48 common/built-in.o
 .text.of_bus_default_count_cells
                0x0000000000000000       0x74 common/built-in.o
 .text.of_bus_default_translate
                0x0000000000000000       0xb0 common/built-in.o
 .text.fdt_getprop_u32_default_node
                0x0000000000000000       0x50 common/built-in.o
 .text.fdt_getprop_u32_default
                0x0000000000000000       0x54 common/built-in.o
 .text.do_fixup_by_path_u32
                0x0000000000000000       0x28 common/built-in.o
 .text.do_fixup_by_prop
                0x0000000000000000       0xbc common/built-in.o
 .text.do_fixup_by_prop_u32
                0x0000000000000000       0x28 common/built-in.o
 .text.do_fixup_by_compat
                0x0000000000000000       0xa4 common/built-in.o
 .text.do_fixup_by_compat_u32
                0x0000000000000000       0x28 common/built-in.o
 .text.fdt_increase_size
                0x0000000000000000       0x14 common/built-in.o
 .text.fdt_del_node_and_alias
                0x0000000000000000       0x5c common/built-in.o
 .text.fdt_translate_address
                0x0000000000000000      0x270 common/built-in.o
 .text.fdt_node_offset_by_compat_reg
                0x0000000000000000       0xa0 common/built-in.o
 .text.fdt_alloc_phandle
                0x0000000000000000       0x6c common/built-in.o
 .text.fdt_set_phandle
                0x0000000000000000       0x68 common/built-in.o
 .text.fdt_create_phandle
                0x0000000000000000       0x78 common/built-in.o
 .text.fdt_set_node_status
                0x0000000000000000       0xe8 common/built-in.o
 .text.fdt_set_status_by_alias
                0x0000000000000000       0x38 common/built-in.o
 .text.fdt_verify_alias_address
                0x0000000000000000       0xe0 common/built-in.o
 .text.fdt_get_base_address
                0x0000000000000000       0x64 common/built-in.o
 .text.fdt_read_range
                0x0000000000000000      0x154 common/built-in.o
 .text.fdt_setup_simplefb_node
                0x0000000000000000      0x1f0 common/built-in.o
 .text.name_to_gpio
                0x0000000000000000       0x1c common/built-in.o
 .text.i2c_init_board
                0x0000000000000000        0x4 common/built-in.o
 .text.i2c_get_bus_speed
                0x0000000000000000        0xc common/built-in.o
 .text.i2c_set_bus_speed
                0x0000000000000000       0x14 common/built-in.o
 .text.boot_info_get_attemp_times
                0x0000000000000000        0x8 common/built-in.o
 .text.boot_info_change_online_slot
                0x0000000000000000       0x64 common/built-in.o
 .text.boot_info_get_online_slot
                0x0000000000000000       0x24 common/built-in.o
 .text.legacy_miiphy_read
                0x0000000000000000       0x38 common/built-in.o
 .text.legacy_miiphy_write
                0x0000000000000000       0x28 common/built-in.o
 .text.miiphy_register
                0x0000000000000000      0x130 common/built-in.o
 .text.mdio_list_devices
                0x0000000000000000       0xcc common/built-in.o
 .text.miiphy_set_current_dev
                0x0000000000000000       0x44 common/built-in.o
 .text.miiphy_get_active_dev
                0x0000000000000000       0x6c common/built-in.o
 .text.mdio_get_current_dev
                0x0000000000000000       0x10 common/built-in.o
 .text.mdio_phydev_for_ethname
                0x0000000000000000       0xa0 common/built-in.o
 .text.miiphy_get_current_dev
                0x0000000000000000       0x1c common/built-in.o
 .text.miiphy_read
                0x0000000000000000       0x58 common/built-in.o
 .text.miiphy_write
                0x0000000000000000       0x50 common/built-in.o
 .text.miiphy_listdev
                0x0000000000000000       0x98 common/built-in.o
 .text.miiphy_info
                0x0000000000000000       0xa0 common/built-in.o
 .text.miiphy_speed
                0x0000000000000000       0xac common/built-in.o
 .text.miiphy_duplex
                0x0000000000000000       0xb0 common/built-in.o
 .text.miiphy_is_1000base_x
                0x0000000000000000        0x8 common/built-in.o
 .text.usb_submit_int_msg
                0x0000000000000000        0x4 common/built-in.o
 .text.usb_set_protocol
                0x0000000000000000       0x50 common/built-in.o
 .text.usb_set_idle
                0x0000000000000000       0x50 common/built-in.o
 .text.usb_get_report
                0x0000000000000000       0x60 common/built-in.o
 .text.usb_get_class_descriptor
                0x0000000000000000       0x60 common/built-in.o
 .text.usb_alloc_device
                0x0000000000000000        0x8 common/built-in.o
 .text.splash_screen_prepare
                0x0000000000000000        0x8 common/built-in.o
 .text.serial_printf
                0x0000000000000000       0xd4 common/built-in.o
 .text.fputs    0x0000000000000000       0x2c common/built-in.o
 .text.fprintf  0x0000000000000000       0xd4 common/built-in.o
 .text.confirm_yesno
                0x0000000000000000       0xdc common/built-in.o
 .text.disable_ctrlc
                0x0000000000000000       0x18 common/built-in.o
 .text.valloc   0x0000000000000000        0xc common/built-in.o
 .text.pvalloc  0x0000000000000000       0x10 common/built-in.o
 .text.cfree    0x0000000000000000        0x4 common/built-in.o
 .text.malloc_usable_size
                0x0000000000000000       0x3c common/built-in.o
 .text.mallopt  0x0000000000000000       0x78 common/built-in.o
 .text.genimg_get_kernel_addr
                0x0000000000000000       0x24 common/built-in.o
 .text.arch_fixup_fdt
                0x0000000000000000        0x8 common/built-in.o
 .text.fit_get_timestamp
                0x0000000000000000       0x5c common/built-in.o
 .text.fit_set_timestamp
                0x0000000000000000       0x98 common/built-in.o
 .text.fit_all_image_verify
                0x0000000000000000      0x114 common/built-in.o
 .text.fit_conf_find_compat
                0x0000000000000000      0x1a8 common/built-in.o
 .text.get_ram_size
                0x0000000000000000       0xe8 common/built-in.o
 .text.get_effective_memsize
                0x0000000000000000        0x8 common/built-in.o
 .text.stdio_init
                0x0000000000000000       0x1c common/built-in.o
 .text.cli_simple_process_macros
                0x0000000000000000      0x218 common/built-in.o
 .text.cli_simple_run_command
                0x0000000000000000      0x148 common/built-in.o
 .text.cli_simple_loop
                0x0000000000000000       0x90 common/built-in.o
 .text.cli_simple_run_command_list
                0x0000000000000000       0x74 common/built-in.o
 .text.run_command_repeatable
                0x0000000000000000       0x20 common/built-in.o
 .text.hex1_bin
                0x0000000000000000       0x54 common/built-in.o
 .text.hex2_bin
                0x0000000000000000       0x48 common/built-in.o
 .text.srec_decode
                0x0000000000000000      0x244 common/built-in.o
 .text.CYGACC_COMM_IF_GETC_TIMEOUT.isra.0
                0x0000000000000000       0x54 common/built-in.o
 .text.xyzModem_flush
                0x0000000000000000       0x1c common/built-in.o
 .text.xyzModem_get_hdr
                0x0000000000000000      0x228 common/built-in.o
 .text.xyzModem_stream_open
                0x0000000000000000      0x280 common/built-in.o
 .text.xyzModem_stream_read
                0x0000000000000000      0x268 common/built-in.o
 .text.xyzModem_stream_close
                0x0000000000000000       0x44 common/built-in.o
 .text.xyzModem_stream_terminate
                0x0000000000000000       0xac common/built-in.o
 .text.xyzModem_error
                0x0000000000000000       0x28 common/built-in.o
 .rodata.fdt_set_node_status
                0x0000000000000000        0x4 common/built-in.o
 .rodata.__FUNCTION__.5963
                0x0000000000000000       0x18 common/built-in.o
 .rodata.__FUNCTION__.6052
                0x0000000000000000       0x10 common/built-in.o
 .rodata.temp_for_compile
                0x0000000000000000       0x20 common/built-in.o
 .rodata.mallopt
                0x0000000000000000        0x4 common/built-in.o
 .rodata.srec_decode
                0x0000000000000000        0xc common/built-in.o
 .rodata.CSWTCH.24
                0x0000000000000000       0x40 common/built-in.o
 .rodata.__func__.5860
                0x0000000000000000       0x20 common/built-in.o
 .data          0x0000000000000000        0x0 common/built-in.o
 .data.of_busses
                0x0000000000000000       0x28 common/built-in.o
 .data.mmap_threshold
                0x0000000000000000        0x8 common/built-in.o
 .bss           0x0000000000000000        0x0 common/built-in.o
 .bss.env_ptr   0x0000000000000000        0x8 common/built-in.o
 .bss.n_mmaps_max
                0x0000000000000000        0x4 common/built-in.o
 .bss.save_addr
                0x0000000000000000        0x8 common/built-in.o
 .bss.save_size
                0x0000000000000000        0x8 common/built-in.o
 .bss.lastcommand.5612
                0x0000000000000000      0x200 common/built-in.o
 .bss.xyz       0x0000000000000000      0x448 common/built-in.o
 .text          0x0000000000000000        0x0 disk/built-in.o
 .data          0x0000000000000000        0x0 disk/built-in.o
 .bss           0x0000000000000000        0x0 disk/built-in.o
 .text          0x0000000000000000        0x0 drivers/built-in.o
 .text.dev_get_priv
                0x0000000000000000       0x40 drivers/built-in.o
 .text.dev_get_parentdata
                0x0000000000000000       0x40 drivers/built-in.o
 .text.device_get_child
                0x0000000000000000       0x60 drivers/built-in.o
 .text.device_find_child_by_seq
                0x0000000000000000       0x58 drivers/built-in.o
 .text.device_get_child_by_seq
                0x0000000000000000       0x70 drivers/built-in.o
 .text.device_find_child_by_of_offset
                0x0000000000000000       0x40 drivers/built-in.o
 .text.device_get_child_by_of_offset
                0x0000000000000000       0x40 drivers/built-in.o
 .text.device_find_first_child
                0x0000000000000000       0x28 drivers/built-in.o
 .text.device_find_next_child
                0x0000000000000000       0x30 drivers/built-in.o
 .text.dev_get_parent
                0x0000000000000000        0x8 drivers/built-in.o
 .text.dev_get_of_data
                0x0000000000000000        0xc drivers/built-in.o
 .text.device_bind_driver
                0x0000000000000000       0x90 drivers/built-in.o
 .text.dm_root  0x0000000000000000       0x38 drivers/built-in.o
 .text.dm_uninit
                0x0000000000000000       0x24 drivers/built-in.o
 .text.uclass_destroy
                0x0000000000000000       0xb0 drivers/built-in.o
 .text.uclass_find_device
                0x0000000000000000       0x70 drivers/built-in.o
 .text.uclass_get_device
                0x0000000000000000       0x40 drivers/built-in.o
 .text.uclass_get_device_by_seq
                0x0000000000000000       0x70 drivers/built-in.o
 .text.uclass_get_device_by_of_offset
                0x0000000000000000       0x80 drivers/built-in.o
 .text.dm_dbg   0x0000000000000000       0x88 drivers/built-in.o
 .text.list_count_items
                0x0000000000000000       0x24 drivers/built-in.o
 .text.device_unbind
                0x0000000000000000       0xd0 drivers/built-in.o
 .text.vpp_pq_load
                0x0000000000000000       0xd8 drivers/built-in.o
 .text.input_tstc
                0x0000000000000000       0x50 drivers/built-in.o
 .text.input_getc
                0x0000000000000000       0x5c drivers/built-in.o
 .text.input_send_keycodes
                0x0000000000000000      0x398 drivers/built-in.o
 .text.input_add_table
                0x0000000000000000       0x44 drivers/built-in.o
 .text.input_set_delays
                0x0000000000000000        0xc drivers/built-in.o
 .text.input_init
                0x0000000000000000       0x9c drivers/built-in.o
 .text.input_stdio_register
                0x0000000000000000       0x58 drivers/built-in.o
 .text.keymanage_dts_get_key_fmt
                0x0000000000000000       0xc0 drivers/built-in.o
 .text.aml_burn_check_is_ready_for_burn
                0x0000000000000000       0x34 drivers/built-in.o
 .text.aml_burn_factory_producing
                0x0000000000000000       0x88 drivers/built-in.o
 .text.usb_set_reply_cmd_id
                0x0000000000000000       0x1c drivers/built-in.o
 .text.dwc_otg_power_off_phy
                0x0000000000000000       0x14 drivers/built-in.o
 .text.set_low_power_for_usb_burn
                0x0000000000000000       0x18 drivers/built-in.o
 .text.optimus_download_exit
                0x0000000000000000        0x8 drivers/built-in.o
 .text.optimus_save_loaded_dtb_to_flash
                0x0000000000000000       0x58 drivers/built-in.o
 .text.is_optimus_on_burn
                0x0000000000000000       0x14 drivers/built-in.o
 .text.is_optimus_pre_burn
                0x0000000000000000       0x14 drivers/built-in.o
 .text.is_optimus_to_burn_ready
                0x0000000000000000       0x14 drivers/built-in.o
 .text.optimus_key_burn_init
                0x0000000000000000       0x78 drivers/built-in.o
 .text.is_the_flash_first_burned
                0x0000000000000000       0x5c drivers/built-in.o
 .text.optimus_buf_manager_exit
                0x0000000000000000        0x8 drivers/built-in.o
 .text.is_largest_data_transferring
                0x0000000000000000       0x34 drivers/built-in.o
 .text.set_largest_data_transfer_sta_end
                0x0000000000000000       0x18 drivers/built-in.o
 .text.optimus_progress_exit
                0x0000000000000000        0x8 drivers/built-in.o
 .text.get_item
                0x0000000000000000      0x118 drivers/built-in.o
 .text.optimus_sdc_burn_switch_to_extmmc
                0x0000000000000000        0x8 drivers/built-in.o
 .text.opt_file_open
                0x0000000000000000       0x14 drivers/built-in.o
 .text.opt_file_close
                0x0000000000000000       0x18 drivers/built-in.o
 .text.show_logo_to_report_burn_success
                0x0000000000000000       0x50 drivers/built-in.o
 .text.canvas_read
                0x0000000000000000       0x3c drivers/built-in.o
 .text.canvas_copy
                0x0000000000000000       0xcc drivers/built-in.o
 .text.canvas_update_addr
                0x0000000000000000       0xb8 drivers/built-in.o
 .text.canvas_get_addr
                0x0000000000000000       0x1c drivers/built-in.o
 .text.osd_set_gbl_alpha_hw
                0x0000000000000000       0x40 drivers/built-in.o
 .text.osd_get_gbl_alpha_hw
                0x0000000000000000       0x14 drivers/built-in.o
 .text.osd_set_color_key_hw
                0x0000000000000000      0x13c drivers/built-in.o
 .text.osd_srckey_enable_hw
                0x0000000000000000       0x44 drivers/built-in.o
 .text.osd_set_color_mode
                0x0000000000000000       0x38 drivers/built-in.o
 .text.osd_update_disp_axis_hw
                0x0000000000000000      0x10c drivers/built-in.o
 .text.osd_setpal_hw
                0x0000000000000000       0x48 drivers/built-in.o
 .text.osd_get_order_hw
                0x0000000000000000       0x18 drivers/built-in.o
 .text.osd_set_order_hw
                0x0000000000000000       0x38 drivers/built-in.o
 .text.osd_get_free_scale_enable_hw
                0x0000000000000000       0x18 drivers/built-in.o
 .text.osd_get_free_scale_mode_hw
                0x0000000000000000       0x18 drivers/built-in.o
 .text.osd_set_4k2k_fb_mode_hw
                0x0000000000000000       0x10 drivers/built-in.o
 .text.osd_set_free_scale_width_hw
                0x0000000000000000       0x3c drivers/built-in.o
 .text.osd_get_free_scale_width_hw
                0x0000000000000000       0x18 drivers/built-in.o
 .text.osd_set_free_scale_height_hw
                0x0000000000000000       0x34 drivers/built-in.o
 .text.osd_get_free_scale_height_hw
                0x0000000000000000       0x18 drivers/built-in.o
 .text.osd_get_free_scale_axis_hw
                0x0000000000000000       0x3c drivers/built-in.o
 .text.osd_get_scale_axis_hw
                0x0000000000000000       0x3c drivers/built-in.o
 .text.osd_set_scale_axis_hw
                0x0000000000000000       0x2c drivers/built-in.o
 .text.osd_get_window_axis_hw
                0x0000000000000000       0xc8 drivers/built-in.o
 .text.osd_get_block_windows_hw
                0x0000000000000000       0x20 drivers/built-in.o
 .text.osd_set_block_windows_hw
                0x0000000000000000       0x48 drivers/built-in.o
 .text.osd_get_block_mode_hw
                0x0000000000000000       0x18 drivers/built-in.o
 .text.osd_set_block_mode_hw
                0x0000000000000000       0x2c drivers/built-in.o
 .text.osd_set_2x_scale_hw
                0x0000000000000000       0xfc drivers/built-in.o
 .text.osd_enable_3d_mode_hw
                0x0000000000000000       0x7c drivers/built-in.o
 .text.osd_set_rotate_angle_hw
                0x0000000000000000       0x2c drivers/built-in.o
 .text.osd_get_rotate_angle_hw
                0x0000000000000000       0x18 drivers/built-in.o
 .text.osd_set_rotate_on_hw
                0x0000000000000000      0x1c0 drivers/built-in.o
 .text.osd_get_rotate_on_hw
                0x0000000000000000       0x18 drivers/built-in.o
 .text.osd_get_update_state_hw
                0x0000000000000000       0x18 drivers/built-in.o
 .text.osd_set_update_state_hw
                0x0000000000000000       0x14 drivers/built-in.o
 .text.osd_set_reverse_hw
                0x0000000000000000       0x2c drivers/built-in.o
 .text.osd_get_reverse_hw
                0x0000000000000000       0x18 drivers/built-in.o
 .text.osd_set_prot_canvas_hw
                0x0000000000000000       0xb0 drivers/built-in.o
 .text.osd_get_prot_canvas_hw
                0x0000000000000000       0x3c drivers/built-in.o
 .text.osd_pan_display_hw
                0x0000000000000000       0xf0 drivers/built-in.o
 .text.vout_set_current_vmode
                0x0000000000000000       0x10 drivers/built-in.o
 .text.vout_vinfo_dump
                0x0000000000000000       0x7c drivers/built-in.o
 .text.secure_storage_notifier
                0x0000000000000000        0xc drivers/built-in.o
 .text.secure_storage_list
                0x0000000000000000       0x8c drivers/built-in.o
 .text.secure_storage_remove
                0x0000000000000000       0x68 drivers/built-in.o
 .text.secure_storage_get_enctype
                0x0000000000000000       0x1c drivers/built-in.o
 .text.secure_storage_version
                0x0000000000000000       0x1c drivers/built-in.o
 .text.amlkey_isencrypt
                0x0000000000000000       0x18 drivers/built-in.o
 .text.amlkey_del
                0x0000000000000000       0x7c drivers/built-in.o
 .text.saradc_dev_get
                0x0000000000000000        0xc drivers/built-in.o
 .rodata.__func__.6184
                0x0000000000000000       0x10 drivers/built-in.o
 .rodata.__func__.6188
                0x0000000000000000       0x18 drivers/built-in.o
 .rodata.lut_name
                0x0000000000000000       0x40 drivers/built-in.o
 .rodata.kbd_to_ansi364
                0x0000000000000000       0x40 drivers/built-in.o
 .rodata.kbd_plain_xlate
                0x0000000000000000       0x68 drivers/built-in.o
 .rodata.CSWTCH.16
                0x0000000000000000       0x10 drivers/built-in.o
 .rodata._UsrMacKeyLen
                0x0000000000000000        0x4 drivers/built-in.o
 .rodata.__func__.5749
                0x0000000000000000       0x20 drivers/built-in.o
 .rodata.UpgradeLogoAddr
                0x0000000000000000        0x8 drivers/built-in.o
 .rodata.__func__.5713
                0x0000000000000000       0x10 drivers/built-in.o
 .data          0x0000000000000000        0x0 drivers/built-in.o
 .data.kbd_ctrl_xlate
                0x0000000000000000       0x68 drivers/built-in.o
 .data.kbd_shift_xlate
                0x0000000000000000       0x68 drivers/built-in.o
 .bss           0x0000000000000000        0x0 drivers/built-in.o
 .bss.do_fat_read_block
                0x0000000000000000    0x10000 drivers/built-in.o
 .text          0x0000000000000000        0x0 drivers/gpio/built-in.o
 .text.gpio_requestf
                0x0000000000000000       0xac drivers/gpio/built-in.o
 .text.gpio_set_value
                0x0000000000000000       0x60 drivers/gpio/built-in.o
 .text.gpio_get_values_as_int
                0x0000000000000000       0x60 drivers/gpio/built-in.o
 .data          0x0000000000000000        0x0 drivers/gpio/built-in.o
 .bss           0x0000000000000000        0x0 drivers/gpio/built-in.o
 .text          0x0000000000000000        0x0 drivers/i2c/built-in.o
 .text.aml_i2c_xfer_slow
                0x0000000000000000      0x1e0 drivers/i2c/built-in.o
 .text.aml_i2c_transfer
                0x0000000000000000      0x220 drivers/i2c/built-in.o
 .rodata.__func__.5953
                0x0000000000000000       0x18 drivers/i2c/built-in.o
 .rodata.__func__.6051
                0x0000000000000000       0x18 drivers/i2c/built-in.o
 .data          0x0000000000000000        0x0 drivers/i2c/built-in.o
 .bss           0x0000000000000000        0x0 drivers/i2c/built-in.o
 .text          0x0000000000000000        0x0 drivers/mmc/built-in.o
 .text.mmc_register
                0x0000000000000000       0x28 drivers/mmc/built-in.o
 .text.mmc_destroy
                0x0000000000000000        0x4 drivers/mmc/built-in.o
 .text.board_mmc_init
                0x0000000000000000        0x8 drivers/mmc/built-in.o
 .text.mmc_set_preinit
                0x0000000000000000        0x8 drivers/mmc/built-in.o
 .text.get_emmc_partition_arraysize
                0x0000000000000000        0x8 drivers/mmc/built-in.o
 .text.get_emmc_virtual_partition_arraysize
                0x0000000000000000        0x8 drivers/mmc/built-in.o
 .text._dump_part_tbl
                0x0000000000000000       0x60 drivers/mmc/built-in.o
 .text.get_partition_num_by_name
                0x0000000000000000       0x98 drivers/mmc/built-in.o
 .rodata.__func__.6442
                0x0000000000000000       0x10 drivers/mmc/built-in.o
 .rodata.__func__.6172
                0x0000000000000000       0x18 drivers/mmc/built-in.o
 .data          0x0000000000000000        0x0 drivers/mmc/built-in.o
 .bss           0x0000000000000000        0x0 drivers/mmc/built-in.o
 .bss.cal_time  0x0000000000000000        0x1 drivers/mmc/built-in.o
 .bss.dly_tmp   0x0000000000000000        0x1 drivers/mmc/built-in.o
 .bss.max_index
                0x0000000000000000        0x1 drivers/mmc/built-in.o
 .bss.line_x    0x0000000000000000        0x1 drivers/mmc/built-in.o
 .text          0x0000000000000000        0x0 drivers/nand/built-in.o
 .text.aml_sys_info_error_handle
                0x0000000000000000      0x110 drivers/nand/built-in.o
 .text.amlnf_dev_init
                0x0000000000000000        0x8 drivers/nand/built-in.o
 .text.strtoul  0x0000000000000000        0x4 drivers/nand/built-in.o
 .text.aml_nand_update_dtb
                0x0000000000000000       0xe0 drivers/nand/built-in.o
 .text.aml_nand_update_key
                0x0000000000000000       0xe8 drivers/nand/built-in.o
 .text.memset_nand_test
                0x0000000000000000       0x44 drivers/nand/built-in.o
 .text.get_bad_flag_from_oob
                0x0000000000000000       0x24 drivers/nand/built-in.o
 .text.check_logic_page_map
                0x0000000000000000       0xa8 drivers/nand/built-in.o
 .text.check_block_accroding_p2l
                0x0000000000000000       0xd8 drivers/nand/built-in.o
 .text.is_phy_block_valid
                0x0000000000000000       0x18 drivers/nand/built-in.o
 .text.get_used_block_count
                0x0000000000000000       0x54 drivers/nand/built-in.o
 .text.print_nftl_part
                0x0000000000000000      0x1e0 drivers/nand/built-in.o
 .text.print_gc_list
                0x0000000000000000       0x50 drivers/nand/built-in.o
 .text.prio_gc_all
                0x0000000000000000       0x44 drivers/nand/built-in.o
 .text.do_static_wear_leveling
                0x0000000000000000       0x80 drivers/nand/built-in.o
 .text.gc_one   0x0000000000000000       0x68 drivers/nand/built-in.o
 .text.gc_all   0x0000000000000000       0x38 drivers/nand/built-in.o
 .text.aml_nftl_set_part_test
                0x0000000000000000        0x8 drivers/nand/built-in.o
 .text.aml_nftl_get_part_write_cache_nums
                0x0000000000000000        0x8 drivers/nand/built-in.o
 .text.del_block_count_list
                0x0000000000000000       0x18 drivers/nand/built-in.o
 .text.del_block_count_by_block
                0x0000000000000000       0x40 drivers/nand/built-in.o
 .text.print_block_count_list
                0x0000000000000000       0x50 drivers/nand/built-in.o
 .text.print_p2l_tbl
                0x0000000000000000       0x84 drivers/nand/built-in.o
 .text.dbg_check_p2l
                0x0000000000000000       0x40 drivers/nand/built-in.o
 .text.get_reserved_block_num
                0x0000000000000000       0x1c drivers/nand/built-in.o
 .text.dbg_erase_whole_chip
                0x0000000000000000       0x14 drivers/nand/built-in.o
 .text.dbg_ereaeblk
                0x0000000000000000       0xb4 drivers/nand/built-in.o
 .text.dbg_writepage
                0x0000000000000000       0xd4 drivers/nand/built-in.o
 .text.amlchip_opstest
                0x0000000000000000      0x1d0 drivers/nand/built-in.o
 .text.get_chip_state
                0x0000000000000000        0x8 drivers/nand/built-in.o
 .text.phrase_driver_version
                0x0000000000000000        0x8 drivers/nand/built-in.o
 .text.amlnand_free_block_test
                0x0000000000000000      0x444 drivers/nand/built-in.o
 .text.show_data_buf
                0x0000000000000000        0x4 drivers/nand/built-in.o
 .text._dump_mem_u8
                0x0000000000000000       0xb0 drivers/nand/built-in.o
 .text.dbg_amlnf_erase_ops
                0x0000000000000000      0x1a0 drivers/nand/built-in.o
 .rodata.__func__.6741
                0x0000000000000000       0x18 drivers/nand/built-in.o
 .rodata.__func__.6729
                0x0000000000000000       0x18 drivers/nand/built-in.o
 .rodata.__func__.6625
                0x0000000000000000       0x20 drivers/nand/built-in.o
 .rodata.__func__.6547
                0x0000000000000000       0x10 drivers/nand/built-in.o
 .rodata.__func__.6814
                0x0000000000000000       0x28 drivers/nand/built-in.o
 .rodata.__func__.6749
                0x0000000000000000       0x10 drivers/nand/built-in.o
 .data          0x0000000000000000        0x0 drivers/nand/built-in.o
 .data.bch_list
                0x0000000000000000      0x200 drivers/nand/built-in.o
 .bss           0x0000000000000000        0x0 drivers/nand/built-in.o
 .bss.phy_device
                0x0000000000000000        0x8 drivers/nand/built-in.o
 .bss.nftl_device
                0x0000000000000000        0x8 drivers/nand/built-in.o
 .text          0x0000000000000000        0x0 drivers/net/built-in.o
 .data          0x0000000000000000        0x0 drivers/net/built-in.o
 .bss           0x0000000000000000        0x0 drivers/net/built-in.o
 .text          0x0000000000000000        0x0 drivers/net/phy/built-in.o
 .text.phy_register
                0x0000000000000000       0x28 drivers/net/phy/built-in.o
 .text.miiphy_reset
                0x0000000000000000       0x30 drivers/net/phy/built-in.o
 .text.phy_connect
                0x0000000000000000       0x68 drivers/net/phy/built-in.o
 .data          0x0000000000000000        0x0 drivers/net/phy/built-in.o
 .bss           0x0000000000000000        0x0 drivers/net/phy/built-in.o
 .text          0x0000000000000000        0x0 drivers/serial/built-in.o
 .text.serial_register
                0x0000000000000000       0x18 drivers/serial/built-in.o
 .text.serial_reinit_all
                0x0000000000000000       0x38 drivers/serial/built-in.o
 .text.default_serial_puts
                0x0000000000000000       0x3c drivers/serial/built-in.o
 .text.uart_UART_PORT_0_getc
                0x0000000000000000        0x8 drivers/serial/built-in.o
 .text.uart_UART_PORT_0_tstc
                0x0000000000000000       0x10 drivers/serial/built-in.o
 .text.uart_UART_PORT_0_putc
                0x0000000000000000        0xc drivers/serial/built-in.o
 .text.uart_UART_PORT_0_puts
                0x0000000000000000        0xc drivers/serial/built-in.o
 .text.uart_UART_PORT_1_getc
                0x0000000000000000        0x8 drivers/serial/built-in.o
 .text.uart_UART_PORT_1_tstc
                0x0000000000000000       0x10 drivers/serial/built-in.o
 .text.uart_UART_PORT_1_putc
                0x0000000000000000        0xc drivers/serial/built-in.o
 .text.uart_UART_PORT_1_puts
                0x0000000000000000        0xc drivers/serial/built-in.o
 .text.uart_UART_PORT_1_setbrg
                0x0000000000000000        0x8 drivers/serial/built-in.o
 .text.uart_UART_PORT_0_setbrg
                0x0000000000000000        0x8 drivers/serial/built-in.o
 .text.uart_UART_PORT_1_init
                0x0000000000000000       0x1c drivers/serial/built-in.o
 .text.uart_UART_PORT_0_init
                0x0000000000000000       0x1c drivers/serial/built-in.o
 .text.serial_aml_register
                0x0000000000000000       0x30 drivers/serial/built-in.o
 .data          0x0000000000000000        0x0 drivers/serial/built-in.o
 .data.device_UART_PORT_0
                0x0000000000000000       0x50 drivers/serial/built-in.o
 .data.device_UART_PORT_1
                0x0000000000000000       0x50 drivers/serial/built-in.o
 .bss           0x0000000000000000        0x0 drivers/serial/built-in.o
 .text          0x0000000000000000        0x0 drivers/spi/built-in.o
 .text.spi_set_wordlen
                0x0000000000000000       0x38 drivers/spi/built-in.o
 .text.spi_do_alloc_slave
                0x0000000000000000       0x70 drivers/spi/built-in.o
 .rodata.str1.1
                0x0000000000000000       0x19 drivers/spi/built-in.o
 .data          0x0000000000000000        0x0 drivers/spi/built-in.o
 .bss           0x0000000000000000        0x0 drivers/spi/built-in.o
 .comment       0x0000000000000000       0x60 drivers/spi/built-in.o
 .debug_aranges
                0x0000000000000000       0x40 drivers/spi/built-in.o
 .debug_info    0x0000000000000000      0x52e drivers/spi/built-in.o
 .debug_abbrev  0x0000000000000000      0x1a5 drivers/spi/built-in.o
 .debug_line    0x0000000000000000      0x119 drivers/spi/built-in.o
 .debug_frame   0x0000000000000000       0x78 drivers/spi/built-in.o
 .debug_str     0x0000000000000000      0x415 drivers/spi/built-in.o
 .debug_loc     0x0000000000000000      0x260 drivers/spi/built-in.o
 .debug_ranges  0x0000000000000000       0x30 drivers/spi/built-in.o
 .text          0x0000000000000000        0x0 drivers/usb/gadget/built-in.o
 .text.usb_gadget_config_buf
                0x0000000000000000       0x9c drivers/usb/gadget/built-in.o
 .text.usb_function_deactivate
                0x0000000000000000       0x58 drivers/usb/gadget/built-in.o
 .text.usb_function_activate
                0x0000000000000000       0x58 drivers/usb/gadget/built-in.o
 .text.usb_string_ids_tab
                0x0000000000000000       0x38 drivers/usb/gadget/built-in.o
 .text.usb_string_ids_n
                0x0000000000000000       0x2c drivers/usb/gadget/built-in.o
 .text.g_dnl_board_usb_cable_connected
                0x0000000000000000        0x8 drivers/usb/gadget/built-in.o
 .text.usb_pcd_irq_loop
                0x0000000000000000        0x4 drivers/usb/gadget/built-in.o
 .text.usb_pcd_get_gadget
                0x0000000000000000       0x10 drivers/usb/gadget/built-in.o
 .text.dwc_otg_bind_gadget_driver
                0x0000000000000000       0x14 drivers/usb/gadget/built-in.o
 .data          0x0000000000000000        0x0 drivers/usb/gadget/built-in.o
 .bss           0x0000000000000000        0x0 drivers/usb/gadget/built-in.o
 .text          0x0000000000000000        0x0 drivers/usb/host/built-in.o
 .text.dwc3_set_mode
                0x0000000000000000       0x14 drivers/usb/host/built-in.o
 .data          0x0000000000000000        0x0 drivers/usb/host/built-in.o
 .bss           0x0000000000000000        0x0 drivers/usb/host/built-in.o
 .text          0x0000000000000000        0x0 fs/built-in.o
 .text.fs_uuid  0x0000000000000000       0x38 fs/built-in.o
 .text.fs_write
                0x0000000000000000       0x90 fs/built-in.o
 .text.do_save  0x0000000000000000      0x150 fs/built-in.o
 .text.do_fs_uuid
                0x0000000000000000       0xac fs/built-in.o
 .text.fat_register_device
                0x0000000000000000       0x84 fs/built-in.o
 .text.file_fat_read
                0x0000000000000000       0x34 fs/built-in.o
 .text.file_getfsname
                0x0000000000000000       0x1c fs/built-in.o
 .text.file_cd  0x0000000000000000      0x208 fs/built-in.o
 .text.file_detectfs
                0x0000000000000000       0x5c fs/built-in.o
 .text.file_ls  0x0000000000000000       0xa4 fs/built-in.o
 .text.file_read
                0x0000000000000000       0xbc fs/built-in.o
 .rodata.filesystems
                0x0000000000000000       0x28 fs/built-in.o
 .data          0x0000000000000000        0x0 fs/built-in.o
 .data.file_cwd
                0x0000000000000000      0x200 fs/built-in.o
 .data.current_filesystem
                0x0000000000000000        0x4 fs/built-in.o
 .bss           0x0000000000000000        0x0 fs/built-in.o
 .bss.ext4fs_symlinknest
                0x0000000000000000        0x4 fs/built-in.o
 .bss.g_parent_inode
                0x0000000000000000        0x8 fs/built-in.o
 .text          0x0000000000000000        0x0 lib/built-in.o
 .text.inflateInit_
                0x0000000000000000       0x14 lib/built-in.o
 .text.fdt_getprop_by_offset
                0x0000000000000000       0x58 lib/built-in.o
 .text.fdt_get_alias
                0x0000000000000000       0x34 lib/built-in.o
 .text.fdt_get_path
                0x0000000000000000      0x16c lib/built-in.o
 .text.fdt_parent_offset
                0x0000000000000000       0x48 lib/built-in.o
 .text.fdt_node_offset_by_prop_value
                0x0000000000000000       0xb0 lib/built-in.o
 .text.fdt_count_strings
                0x0000000000000000       0x7c lib/built-in.o
 .text.fdt_find_string
                0x0000000000000000       0xac lib/built-in.o
 .text.fdt_get_string_index
                0x0000000000000000       0x7c lib/built-in.o
 .text.fdt_get_string
                0x0000000000000000        0xc lib/built-in.o
 .text.fdt_node_check_compatible
                0x0000000000000000       0x4c lib/built-in.o
 .text.fdt_node_offset_by_compatible
                0x0000000000000000       0x78 lib/built-in.o
 .text.fdt_set_name
                0x0000000000000000       0xac lib/built-in.o
 .text.fdt_appendprop
                0x0000000000000000       0xe4 lib/built-in.o
 .text.fdt_pack
                0x0000000000000000       0x6c lib/built-in.o
 .text._fdt_sw_check_header
                0x0000000000000000       0x20 lib/built-in.o
 .text._fdt_grab_space
                0x0000000000000000       0x60 lib/built-in.o
 .text.fdt_create
                0x0000000000000000       0x74 lib/built-in.o
 .text.fdt_resize
                0x0000000000000000       0xdc lib/built-in.o
 .text.fdt_add_reservemap_entry
                0x0000000000000000       0x90 lib/built-in.o
 .text.fdt_finish_reservemap
                0x0000000000000000        0xc lib/built-in.o
 .text.fdt_begin_node
                0x0000000000000000       0x88 lib/built-in.o
 .text.fdt_end_node
                0x0000000000000000       0x4c lib/built-in.o
 .text.fdt_property
                0x0000000000000000      0x128 lib/built-in.o
 .text.fdt_finish
                0x0000000000000000      0x110 lib/built-in.o
 .text.fdt_setprop_inplace
                0x0000000000000000       0x5c lib/built-in.o
 .text.fdt_nop_property
                0x0000000000000000       0x48 lib/built-in.o
 .text.fdt_nop_node
                0x0000000000000000       0x6c lib/built-in.o
 .text.fdt_find_regions
                0x0000000000000000      0x358 lib/built-in.o
 .text.fdt_create_empty_tree
                0x0000000000000000       0x78 lib/built-in.o
 .text.crc7     0x0000000000000000       0x30 lib/built-in.o
 .text.crc8     0x0000000000000000       0x44 lib/built-in.o
 .text.cyg_crc16
                0x0000000000000000       0x3c lib/built-in.o
 .text.fdtdec_get_int
                0x0000000000000000       0x44 lib/built-in.o
 .text.lmb_dump_all
                0x0000000000000000        0x4 lib/built-in.o
 .text.lmb_is_reserved
                0x0000000000000000       0x4c lib/built-in.o
 .text.arch_lmb_reserve
                0x0000000000000000        0x4 lib/built-in.o
 .text.ldiv     0x0000000000000000       0x2c lib/built-in.o
 .text.md5      0x0000000000000000       0x78 lib/built-in.o
 .text.strcmp_compar
                0x0000000000000000        0xc lib/built-in.o
 .text.sha1_hmac
                0x0000000000000000      0x14c lib/built-in.o
 .text.sha1_self_test
                0x0000000000000000        0x8 lib/built-in.o
 .text.strmhz   0x0000000000000000       0x6c lib/built-in.o
 .text.merge    0x0000000000000000       0x84 lib/built-in.o
 .text.list_sort
                0x0000000000000000      0x1b0 lib/built-in.o
 .text.hmatch_r
                0x0000000000000000       0xbc lib/built-in.o
 .text.copy_from_user
                0x0000000000000000       0x18 lib/built-in.o
 .text.vzalloc  0x0000000000000000        0x8 lib/built-in.o
 .text.get_mem  0x0000000000000000       0x2c lib/built-in.o
 .text.kmem_cache_alloc
                0x0000000000000000        0xc lib/built-in.o
 .text.strcasecmp
                0x0000000000000000        0x8 lib/built-in.o
 .text.strspn   0x0000000000000000       0x38 lib/built-in.o
 .text.strtok   0x0000000000000000       0x98 lib/built-in.o
 .text.strswab  0x0000000000000000       0x38 lib/built-in.o
 .text.bcopy    0x0000000000000000       0x24 lib/built-in.o
 .text.strlcpy  0x0000000000000000       0x60 lib/built-in.o
 .text.memscan  0x0000000000000000       0x24 lib/built-in.o
 .text.memchr_inv
                0x0000000000000000       0xfc lib/built-in.o
 .text.timer_get_us
                0x0000000000000000       0x1c lib/built-in.o
 .text.ustrtoul
                0x0000000000000000       0x88 lib/built-in.o
 .text.ustrtoull
                0x0000000000000000       0x88 lib/built-in.o
 .text.__assert_fail
                0x0000000000000000       0x18 lib/built-in.o
 .text.print_grouped_ull
                0x0000000000000000       0x94 lib/built-in.o
 .rodata.z_errmsg
                0x0000000000000000       0x50 lib/built-in.o
 .rodata.fdt_find_regions
                0x0000000000000000        0xc lib/built-in.o
 .rodata.crc7_syndrome_table
                0x0000000000000000      0x100 lib/built-in.o
 .rodata.crc16_tab
                0x0000000000000000      0x200 lib/built-in.o
 .data          0x0000000000000000        0x0 lib/built-in.o
 .data.cur      0x0000000000000000        0x8 lib/built-in.o
 .data.current  0x0000000000000000        0x8 lib/built-in.o
 .bss           0x0000000000000000        0x0 lib/built-in.o
 .bss.___strtok
                0x0000000000000000        0x8 lib/built-in.o
 .text          0x0000000000000000        0x0 net/built-in.o
 .text.eth_get_dev_by_name
                0x0000000000000000       0x94 net/built-in.o
 .text.eth_get_dev_by_index
                0x0000000000000000       0x44 net/built-in.o
 .text.eth_unregister
                0x0000000000000000       0xb0 net/built-in.o
 .text.net_get_udp_handler
                0x0000000000000000       0x10 net/built-in.o
 .text.net_set_arp_handler
                0x0000000000000000       0x1c net/built-in.o
 .text.VLAN_to_string
                0x0000000000000000       0x3c net/built-in.o
 .rodata.__FUNCTION__.6148
                0x0000000000000000       0x18 net/built-in.o
 .data          0x0000000000000000        0x0 net/built-in.o
 .data.TftpRRQTimeoutMSecs
                0x0000000000000000        0x8 net/built-in.o
 .bss           0x0000000000000000        0x0 net/built-in.o
 .bss.net_busy_flag
                0x0000000000000000        0x4 net/built-in.o

Memory Configuration

Name             Origin             Length             Attributes
*default*        0x0000000000000000 0xffffffffffffffff

Linker script and memory map

Address of section .text set to 0x1000000
                0x0000000000000000                . = 0x0
                0x0000000000000000                . = ALIGN (0x8)

.text           0x0000000001000000    0x80b68
 *(.__image_copy_start)
 .__image_copy_start
                0x0000000001000000        0x0 arch/arm/lib/built-in.o
                0x0000000001000000                __image_copy_start
 arch/arm/cpu/armv8/start.o(.text*)
 .text          0x0000000001000000      0x138 arch/arm/cpu/armv8/start.o
                0x0000000001000000                _start
                0x0000000001000008                _TEXT_BASE
                0x0000000001000010                _end_ofs
                0x0000000001000018                _bss_start_ofs
                0x0000000001000020                _bss_end_ofs
                0x00000000010000b8                lowlevel_init
                0x00000000010000e0                smp_kick_all_cpus
                0x00000000010000ec                c_runtime_cpu_setup
 *(.text*)
 *fill*         0x0000000001000138      0x6c8 
 .text          0x0000000001000800      0xa64 arch/arm/cpu/armv8/built-in.o
                0x0000000001000800                vectors
                0x0000000001001000                __asm_flush_dcache_level
                0x0000000001001064                __asm_dcache_all
                0x00000000010010c4                __asm_flush_dcache_all
                0x00000000010010d8                __asm_invalidate_dcache_all
                0x00000000010010ec                __asm_flush_dcache_range
                0x0000000001001120                __asm_invalidate_icache_all
                0x000000000100112c                __asm_invalidate_tlb_all
                0x0000000001001178                armv8_switch_to_el2
                0x00000000010011d8                armv8_switch_to_el1
 .text.cleanup_before_linux
                0x0000000001001264       0x28 arch/arm/cpu/armv8/built-in.o
                0x0000000001001264                cleanup_before_linux
 .text.get_tbclk
                0x000000000100128c        0x8 arch/arm/cpu/armv8/built-in.o
                0x000000000100128c                get_tbclk
 .text.timer_read_counter
                0x0000000001001294        0xc arch/arm/cpu/armv8/built-in.o
                0x0000000001001294                timer_read_counter
 .text.invalidate_dcache_all
                0x00000000010012a0        0x4 arch/arm/cpu/armv8/built-in.o
                0x00000000010012a0                invalidate_dcache_all
 .text.flush_l3_cache
                0x00000000010012a4        0x4 arch/arm/cpu/armv8/built-in.o
                0x00000000010012a4                flush_l3_cache
 .text.flush_dcache_all
                0x00000000010012a8       0x14 arch/arm/cpu/armv8/built-in.o
                0x00000000010012a8                flush_dcache_all
 .text.invalidate_dcache_range
                0x00000000010012bc        0x4 arch/arm/cpu/armv8/built-in.o
                0x00000000010012bc                invalidate_dcache_range
 .text.flush_dcache_range
                0x00000000010012c0        0x4 arch/arm/cpu/armv8/built-in.o
                0x00000000010012c0                flush_dcache_range
 .text.dcache_enable
                0x00000000010012c4      0x258 arch/arm/cpu/armv8/built-in.o
                0x00000000010012c4                dcache_enable
 .text.dcache_disable
                0x000000000100151c       0x88 arch/arm/cpu/armv8/built-in.o
                0x000000000100151c                dcache_disable
 .text.dcache_status
                0x00000000010015a4       0x34 arch/arm/cpu/armv8/built-in.o
                0x00000000010015a4                dcache_status
 .text.icache_enable
                0x00000000010015d8       0x74 arch/arm/cpu/armv8/built-in.o
                0x00000000010015d8                icache_enable
 .text.icache_disable
                0x000000000100164c       0x64 arch/arm/cpu/armv8/built-in.o
                0x000000000100164c                icache_disable
 .text.icache_status
                0x00000000010016b0       0x34 arch/arm/cpu/armv8/built-in.o
                0x00000000010016b0                icache_status
 .text.invalidate_icache_all
                0x00000000010016e4        0x4 arch/arm/cpu/armv8/built-in.o
                0x00000000010016e4                invalidate_icache_all
 .text.enable_caches
                0x00000000010016e8       0x14 arch/arm/cpu/armv8/built-in.o
                0x00000000010016e8                enable_caches
 .text.flush_cache
                0x00000000010016fc        0x8 arch/arm/cpu/armv8/built-in.o
                0x00000000010016fc                flush_cache
 .text.get_cpu_id
                0x0000000001001704       0x34 arch/arm/cpu/armv8/built-in.o
                0x0000000001001704                get_cpu_id
 .text.get_chip_id
                0x0000000001001738       0x84 arch/arm/cpu/armv8/built-in.o
                0x0000000001001738                get_chip_id
 .text.clk_get_rate
                0x00000000010017bc       0x38 arch/arm/cpu/armv8/built-in.o
                0x00000000010017bc                clk_get_rate
 .text.clk_util_clk_msr
                0x00000000010017f4       0xf0 arch/arm/cpu/armv8/built-in.o
                0x00000000010017f4                clk_util_clk_msr
 .text.get_clk81
                0x00000000010018e4       0x50 arch/arm/cpu/armv8/built-in.o
                0x00000000010018e4                get_clk81
 .text.clk_msr  0x0000000001001934       0xbc arch/arm/cpu/armv8/built-in.o
                0x0000000001001934                clk_msr
 .text.cpu_sd_emmc_pwr_prepare
                0x00000000010019f0       0x4c arch/arm/cpu/armv8/built-in.o
                0x00000000010019f0                cpu_sd_emmc_pwr_prepare
 .text.cpu_sd_emmc_init
                0x0000000001001a3c       0xd8 arch/arm/cpu/armv8/built-in.o
                0x0000000001001a3c                cpu_sd_emmc_init
 .text.clear_pinmux
                0x0000000001001b14       0x68 arch/arm/cpu/armv8/built-in.o
                0x0000000001001b14                clear_pinmux
 .text.board_usb_start
                0x0000000001001b7c       0x74 arch/arm/cpu/armv8/built-in.o
                0x0000000001001b7c                board_usb_start
 .text.board_usb_init
                0x0000000001001bf0       0x64 arch/arm/cpu/armv8/built-in.o
                0x0000000001001bf0                board_usb_init
 .text.get_usb_count
                0x0000000001001c54       0x10 arch/arm/cpu/armv8/built-in.o
                0x0000000001001c54                get_usb_count
 .text.get_sharemem_info
                0x0000000001001c64        0x8 arch/arm/cpu/armv8/built-in.o
                0x0000000001001c64                get_sharemem_info
 .text.meson_trustzone_efuse
                0x0000000001001c6c      0x110 arch/arm/cpu/armv8/built-in.o
                0x0000000001001c6c                meson_trustzone_efuse
 .text.meson_trustzone_efuse_get_max
                0x0000000001001d7c       0x18 arch/arm/cpu/armv8/built-in.o
                0x0000000001001d7c                meson_trustzone_efuse_get_max
 .text.aml_set_jtag_state
                0x0000000001001d94       0x1c arch/arm/cpu/armv8/built-in.o
                0x0000000001001d94                aml_set_jtag_state
 .text.aml_reboot
                0x0000000001001db0       0x10 arch/arm/cpu/armv8/built-in.o
                0x0000000001001db0                aml_reboot
 .text.aml_sec_boot_check
                0x0000000001001dc0       0x54 arch/arm/cpu/armv8/built-in.o
                0x0000000001001dc0                aml_sec_boot_check
 .text.set_usb_boot_function
                0x0000000001001e14       0x14 arch/arm/cpu/armv8/built-in.o
                0x0000000001001e14                set_usb_boot_function
 .text.aml_system_off
                0x0000000001001e28       0x3c arch/arm/cpu/armv8/built-in.o
                0x0000000001001e28                aml_system_off
 .text.__get_chip_id
                0x0000000001001e64      0x10c arch/arm/cpu/armv8/built-in.o
                0x0000000001001e64                __get_chip_id
 .text.reset_system
                0x0000000001001f70       0x68 arch/arm/cpu/armv8/built-in.o
                0x0000000001001f70                reset_system
 .text.reset_cpu
                0x0000000001001fd8        0xc arch/arm/cpu/armv8/built-in.o
                0x0000000001001fd8                reset_cpu
 .text.hd_read_reg
                0x0000000001001fe4        0xc arch/arm/cpu/armv8/built-in.o
                0x0000000001001fe4                hd_read_reg
 .text.hd_write_reg
                0x0000000001001ff0        0x8 arch/arm/cpu/armv8/built-in.o
                0x0000000001001ff0                hd_write_reg
 .text.hd_set_reg_bits
                0x0000000001001ff8       0x5c arch/arm/cpu/armv8/built-in.o
                0x0000000001001ff8                hd_set_reg_bits
 .text.hdmitx_rd_reg
                0x0000000001002054       0x6c arch/arm/cpu/armv8/built-in.o
                0x0000000001002054                hdmitx_rd_reg
 .text.hdmitx_wr_reg
                0x00000000010020c0       0x78 arch/arm/cpu/armv8/built-in.o
                0x00000000010020c0                hdmitx_wr_reg
 .text.hdmitx_set_reg_bits
                0x0000000001002138       0x5c arch/arm/cpu/armv8/built-in.o
                0x0000000001002138                hdmitx_set_reg_bits
 .text.hdmitx_rd_check_reg
                0x0000000001002194       0x78 arch/arm/cpu/armv8/built-in.o
                0x0000000001002194                hdmitx_rd_check_reg
 .text.hdmitx_turnoff
                0x000000000100220c       0x3c arch/arm/cpu/armv8/built-in.o
 .text.hdmitx_get_hpd_state
                0x0000000001002248       0x20 arch/arm/cpu/armv8/built-in.o
 .text.hdmitx_list_support_modes
                0x0000000001002268       0x50 arch/arm/cpu/armv8/built-in.o
 .text.dump_regs
                0x00000000010022b8      0x18c arch/arm/cpu/armv8/built-in.o
 .text.scdc_wr_sink
                0x0000000001002444       0x64 arch/arm/cpu/armv8/built-in.o
 .text.hdmitx_output_blank
                0x00000000010024a8       0x34 arch/arm/cpu/armv8/built-in.o
 .text.set_phy_by_mode.part.2
                0x00000000010024dc       0x34 arch/arm/cpu/armv8/built-in.o
 .text.set_phy_by_mode
                0x0000000001002510       0xa4 arch/arm/cpu/armv8/built-in.o
 .text.hdmitx_test_bist
                0x00000000010025b4       0x7c arch/arm/cpu/armv8/built-in.o
 .text.hdmitx_hw_init
                0x0000000001002630      0x138 arch/arm/cpu/armv8/built-in.o
 .text.ddc_init
                0x0000000001002768      0x174 arch/arm/cpu/armv8/built-in.o
 .text.hdmitx_read_edid
                0x00000000010028dc      0x130 arch/arm/cpu/armv8/built-in.o
 .text.scdc_rd_sink.constprop.8
                0x0000000001002a0c       0x64 arch/arm/cpu/armv8/built-in.o
 .text.hdmi_tx_init
                0x0000000001002a70       0x60 arch/arm/cpu/armv8/built-in.o
                0x0000000001002a70                hdmi_tx_init
 .text.hdmi_tx_set
                0x0000000001002ad0     0x2654 arch/arm/cpu/armv8/built-in.o
                0x0000000001002ad0                hdmi_tx_set
 .text.set_vmode_enc_hw
                0x0000000001005124       0x98 arch/arm/cpu/armv8/built-in.o
                0x0000000001005124                set_vmode_enc_hw
 .text.set_viu_path
                0x00000000010051bc       0x54 arch/arm/cpu/armv8/built-in.o
                0x00000000010051bc                set_viu_path
 .text.set_hdmitx_clk_
                0x0000000001005210     0x1270 arch/arm/cpu/armv8/built-in.o
 .text.set_hdmitx_clk
                0x0000000001006480       0xf4 arch/arm/cpu/armv8/built-in.o
                0x0000000001006480                set_hdmitx_clk
 .text.get_time
                0x0000000001006574       0x10 arch/arm/cpu/armv8/built-in.o
                0x0000000001006574                get_time
 .text._udelay  0x0000000001006584       0x28 arch/arm/cpu/armv8/built-in.o
                0x0000000001006584                _udelay
 .text.open_scp_log
                0x00000000010065ac       0x70 arch/arm/cpu/armv8/built-in.o
                0x00000000010065ac                open_scp_log
 .text.thermal_calibration
                0x000000000100661c       0x84 arch/arm/cpu/armv8/built-in.o
                0x000000000100661c                thermal_calibration
 .text.ee_gate_off
                0x00000000010066a0        0xc arch/arm/cpu/armv8/built-in.o
                0x00000000010066a0                ee_gate_off
 .text.ee_gate_on
                0x00000000010066ac      0x834 arch/arm/cpu/armv8/built-in.o
                0x00000000010066ac                ee_gate_on
 .text.reg_update_bits
                0x0000000001006ee0       0x28 arch/arm/cpu/armv8/built-in.o
 .text.audio_hw_958_enable.part.0
                0x0000000001006f08       0x3c arch/arm/cpu/armv8/built-in.o
 .text.aml_audio_init
                0x0000000001006f44      0x2f0 arch/arm/cpu/armv8/built-in.o
                0x0000000001006f44                aml_audio_init
 .text.irblaster_pinmux_config
                0x0000000001007234       0x34 arch/arm/cpu/armv8/built-in.o
                0x0000000001007234                irblaster_pinmux_config
 .text          0x0000000001007268      0x168 arch/arm/lib/built-in.o
                0x0000000001007268                _main
                0x00000000010072e8                relocate_code
                0x00000000010073c0                gic_init_secure
                0x00000000010073c4                gic_init_secure_percpu
                0x00000000010073c8                gic_kick_secondary_cpus
                0x00000000010073cc                gic_wait_for_interrupt
 .text.arch_fixup_fdt
                0x00000000010073d0       0x34 arch/arm/lib/built-in.o
                0x00000000010073d0                arch_fixup_fdt
 .text.boot_jump_linux
                0x0000000001007404       0xa8 arch/arm/lib/built-in.o
 .text.boot_prep_linux
                0x00000000010074ac       0x58 arch/arm/lib/built-in.o
 .text.arch_lmb_reserve
                0x0000000001007504       0x24 arch/arm/lib/built-in.o
                0x0000000001007504                arch_lmb_reserve
 .text.do_bootm_linux
                0x0000000001007528       0x78 arch/arm/lib/built-in.o
                0x0000000001007528                do_bootm_linux
 .text.boot_prep_vxworks
                0x00000000010075a0       0x4c arch/arm/lib/built-in.o
                0x00000000010075a0                boot_prep_vxworks
 .text.boot_jump_vxworks
                0x00000000010075ec       0x1c arch/arm/lib/built-in.o
                0x00000000010075ec                boot_jump_vxworks
 .text.interrupt_init
                0x0000000001007608        0x8 arch/arm/lib/built-in.o
                0x0000000001007608                interrupt_init
 .text.enable_interrupts
                0x0000000001007610        0x4 arch/arm/lib/built-in.o
                0x0000000001007610                enable_interrupts
 .text.disable_interrupts
                0x0000000001007614        0x8 arch/arm/lib/built-in.o
                0x0000000001007614                disable_interrupts
 .text.show_regs
                0x000000000100761c       0x7c arch/arm/lib/built-in.o
                0x000000000100761c                show_regs
 .text.do_bad_sync
                0x0000000001007698       0x30 arch/arm/lib/built-in.o
                0x0000000001007698                do_bad_sync
 .text.do_bad_irq
                0x00000000010076c8       0x30 arch/arm/lib/built-in.o
                0x00000000010076c8                do_bad_irq
 .text.do_bad_fiq
                0x00000000010076f8       0x30 arch/arm/lib/built-in.o
                0x00000000010076f8                do_bad_fiq
 .text.do_bad_error
                0x0000000001007728       0x30 arch/arm/lib/built-in.o
                0x0000000001007728                do_bad_error
 .text.do_sync  0x0000000001007758       0x30 arch/arm/lib/built-in.o
                0x0000000001007758                do_sync
 .text.do_irq   0x0000000001007788       0x30 arch/arm/lib/built-in.o
                0x0000000001007788                do_irq
 .text.do_fiq   0x00000000010077b8       0x30 arch/arm/lib/built-in.o
                0x00000000010077b8                do_fiq
 .text.do_error
                0x00000000010077e8       0x30 arch/arm/lib/built-in.o
                0x00000000010077e8                do_error
 .text.reset_misc
                0x0000000001007818        0x4 arch/arm/lib/built-in.o
                0x0000000001007818                reset_misc
 .text.do_reset
                0x000000000100781c       0x38 arch/arm/lib/built-in.o
                0x000000000100781c                do_reset
 .text.sd_emmc_pwr_on
                0x0000000001007854        0x4 board/amlogic/gxl_p212_v1/built-in.o
 .text.sd_emmc_pwr_off
                0x0000000001007858        0x4 board/amlogic/gxl_p212_v1/built-in.o
 .text.board_mmc_register
                0x000000000100785c       0xa0 board/amlogic/gxl_p212_v1/built-in.o
 .text.sd_emmc_pwr_prepare
                0x00000000010078fc        0x4 board/amlogic/gxl_p212_v1/built-in.o
 .text.sd_emmc_init
                0x0000000001007900        0x4 board/amlogic/gxl_p212_v1/built-in.o
 .text.sd_emmc_detect
                0x0000000001007904       0xcc board/amlogic/gxl_p212_v1/built-in.o
 .text.serial_set_pin_port
                0x00000000010079d0        0x8 board/amlogic/gxl_p212_v1/built-in.o
                0x00000000010079d0                serial_set_pin_port
 .text.dram_init
                0x00000000010079d8        0xc board/amlogic/gxl_p212_v1/built-in.o
                0x00000000010079d8                dram_init
 .text.secondary_boot_func
                0x00000000010079e4        0x4 board/amlogic/gxl_p212_v1/built-in.o
                0x00000000010079e4                secondary_boot_func
 .text.internalPhyConfig
                0x00000000010079e8      0x16c board/amlogic/gxl_p212_v1/built-in.o
                0x00000000010079e8                internalPhyConfig
 .text.board_eth_init
                0x0000000001007b54       0xa4 board/amlogic/gxl_p212_v1/built-in.o
                0x0000000001007b54                board_eth_init
 .text.board_mmc_init
                0x0000000001007bf8       0x24 board/amlogic/gxl_p212_v1/built-in.o
                0x0000000001007bf8                board_mmc_init
 .text.board_init
                0x0000000001007c1c      0x130 board/amlogic/gxl_p212_v1/built-in.o
                0x0000000001007c1c                board_init
 .text.board_late_init
                0x0000000001007d4c      0x128 board/amlogic/gxl_p212_v1/built-in.o
                0x0000000001007d4c                board_late_init
 .text.get_effective_memsize
                0x0000000001007e74       0x20 board/amlogic/gxl_p212_v1/built-in.o
                0x0000000001007e74                get_effective_memsize
 .text.checkhw  0x0000000001007e94       0xc8 board/amlogic/gxl_p212_v1/built-in.o
                0x0000000001007e94                checkhw
 .text.show_boot_progress
                0x0000000001007f5c        0x4 common/built-in.o
                0x0000000001007f5c                show_boot_progress
 .text.main_loop
                0x0000000001007f60       0x40 common/built-in.o
                0x0000000001007f60                main_loop
 .text.dummy    0x0000000001007fa0        0x4 common/built-in.o
 .text.get_version
                0x0000000001007fa4        0x8 common/built-in.o
                0x0000000001007fa4                get_version
 .text.jumptable_init
                0x0000000001007fac      0x1b0 common/built-in.o
                0x0000000001007fac                jumptable_init
 .text.hash_finish_crc32
                0x000000000100815c       0x38 common/built-in.o
 .text.hash_update_crc32
                0x0000000001008194       0x34 common/built-in.o
 .text.hash_init_crc32
                0x00000000010081c8       0x2c common/built-in.o
 .text.hash_finish_sha256
                0x00000000010081f4       0x48 common/built-in.o
 .text.hash_update_sha256
                0x000000000100823c       0x24 common/built-in.o
 .text.hash_init_sha256
                0x0000000001008260       0x38 common/built-in.o
 .text.hash_lookup_algo
                0x0000000001008298       0x70 common/built-in.o
                0x0000000001008298                hash_lookup_algo
 .text.hash_show
                0x0000000001008308       0x74 common/built-in.o
                0x0000000001008308                hash_show
 .text.hash_command
                0x000000000100837c      0x1a8 common/built-in.o
                0x000000000100837c                hash_command
 .text.b_reset  0x0000000001008524       0x18 common/built-in.o
 .text.static_get
                0x000000000100853c       0x1c common/built-in.o
 .text.static_peek
                0x0000000001008558        0xc common/built-in.o
 .text.file_peek
                0x0000000001008564        0xc common/built-in.o
 .text.mapset   0x0000000001008570       0x20 common/built-in.o
 .text.syntax_err
                0x0000000001008590        0xc common/built-in.o
 .text.free_pipe_list
                0x000000000100859c       0xf8 common/built-in.o
 .text.xmalloc  0x0000000001008694       0x28 common/built-in.o
 .text.new_pipe
                0x00000000010086bc       0x2c common/built-in.o
 .text.xrealloc
                0x00000000010086e8       0x28 common/built-in.o
 .text.done_command
                0x0000000001008710       0x94 common/built-in.o
 .text.done_pipe
                0x00000000010087a4       0x58 common/built-in.o
 .text.done_word
                0x00000000010087fc      0x2ac common/built-in.o
 .text.do_showvar
                0x0000000001008aa8      0x130 common/built-in.o
 .text.is_assignment
                0x0000000001008bd8       0x54 common/built-in.o
 .text.file_get
                0x0000000001008c2c      0x218 common/built-in.o
 .text.b_addchr
                0x0000000001008e44       0x90 common/built-in.o
 .text.b_addqchr
                0x0000000001008ed4       0x58 common/built-in.o
 .text.get_local_var
                0x0000000001008f2c       0xa0 common/built-in.o
                0x0000000001008f2c                get_local_var
 .text.set_local_var
                0x0000000001008fcc      0x1bc common/built-in.o
                0x0000000001008fcc                set_local_var
 .text.insert_var_value_sub
                0x0000000001009188      0x2b0 common/built-in.o
 .text.parse_string_outer
                0x0000000001009438      0x104 common/built-in.o
                0x0000000001009438                parse_string_outer
 .text.run_list_real
                0x000000000100953c      0x7b0 common/built-in.o
 .text.parse_stream_outer
                0x0000000001009cec      0x6f0 common/built-in.o
 .text.parse_file_outer
                0x000000000100a3dc       0x44 common/built-in.o
                0x000000000100a3dc                parse_file_outer
 .text.u_boot_hush_start
                0x000000000100a420       0x60 common/built-in.o
                0x000000000100a420                u_boot_hush_start
 .text.bootdelay_process
                0x000000000100a480       0x5c common/built-in.o
                0x000000000100a480                bootdelay_process
 .text.autoboot_command
                0x000000000100a4dc      0x12c common/built-in.o
                0x000000000100a4dc                autoboot_command
 .text.print_cpuinfo
                0x000000000100a608        0x8 common/built-in.o
 .text.display_text_info
                0x000000000100a610        0x8 common/built-in.o
 .text.setup_mon_len
                0x000000000100a618       0x20 common/built-in.o
 .text.arch_cpu_init
                0x000000000100a638        0x8 common/built-in.o
                0x000000000100a638                arch_cpu_init
 .text.setup_fdt
                0x000000000100a640        0x8 common/built-in.o
 .text.reserve_round_4k
                0x000000000100a648       0x14 common/built-in.o
 .text.reserve_mmu
                0x000000000100a65c       0x34 common/built-in.o
 .text.reserve_trace
                0x000000000100a690        0x8 common/built-in.o
 .text.reserve_uboot
                0x000000000100a698       0x2c common/built-in.o
 .text.reserve_malloc
                0x000000000100a6c4       0x1c common/built-in.o
 .text.setup_machine
                0x000000000100a6e0        0x8 common/built-in.o
 .text.reserve_global_data
                0x000000000100a6e8       0x1c common/built-in.o
 .text.reserve_fdt
                0x000000000100a704       0x48 common/built-in.o
 .text.reserve_stacks
                0x000000000100a74c       0x28 common/built-in.o
 .text.display_new_sp
                0x000000000100a774        0x8 common/built-in.o
 .text.initf_malloc
                0x000000000100a77c        0x8 common/built-in.o
 .text.initf_dm
                0x000000000100a784        0x8 common/built-in.o
 .text.reloc_fdt
                0x000000000100a78c       0x34 common/built-in.o
 .text.setup_reloc
                0x000000000100a7c0       0x44 common/built-in.o
 .text.announce_dram_init
                0x000000000100a804       0x20 common/built-in.o
 .text.init_baud_rate
                0x000000000100a824       0x3c common/built-in.o
 .text.mark_bootstage
                0x000000000100a860       0x1c common/built-in.o
 .text.reserve_board
                0x000000000100a87c       0x3c common/built-in.o
 .text.board_add_ram_info
                0x000000000100a8b8        0x4 common/built-in.o
                0x000000000100a8b8                board_add_ram_info
 .text.show_dram_config
                0x000000000100a8bc       0x40 common/built-in.o
 .text.dram_init_banksize
                0x000000000100a8fc       0x2c common/built-in.o
                0x000000000100a8fc                dram_init_banksize
 .text.setup_dram_config
                0x000000000100a928       0x18 common/built-in.o
 .text.board_get_usable_ram_top
                0x000000000100a940        0x8 common/built-in.o
                0x000000000100a940                board_get_usable_ram_top
 .text.setup_dest_addr
                0x000000000100a948       0x5c common/built-in.o
 .text.board_init_f
                0x000000000100a9a4       0x4c common/built-in.o
                0x000000000100a9a4                board_init_f
 .text.bootstage_relocate
                0x000000000100a9f0        0x8 common/built-in.o
 .text.initr_trace
                0x000000000100a9f8        0x8 common/built-in.o
 .text.initr_reloc_global_data
                0x000000000100aa00       0x28 common/built-in.o
 .text.initr_barrier
                0x000000000100aa28        0x8 common/built-in.o
 .text.power_init_board
                0x000000000100aa30        0x8 common/built-in.o
                0x000000000100aa30                power_init_board
 .text.initr_announce
                0x000000000100aa38        0x8 common/built-in.o
 .text.run_main_loop
                0x000000000100aa40       0x10 common/built-in.o
 .text.initr_net
                0x000000000100aa50       0x28 common/built-in.o
 .text.initr_ethaddr
                0x000000000100aa78       0x28 common/built-in.o
 .text.initr_enable_interrupts
                0x000000000100aaa0       0x18 common/built-in.o
 .text.initr_jumptable
                0x000000000100aab8       0x18 common/built-in.o
 .text.initr_env
                0x000000000100aad0       0x3c common/built-in.o
 .text.initr_mmc
                0x000000000100ab0c       0x28 common/built-in.o
 .text.initr_serial
                0x000000000100ab34       0x18 common/built-in.o
 .text.initr_dm
                0x000000000100ab4c       0x14 common/built-in.o
 .text.initr_malloc
                0x000000000100ab60       0x2c common/built-in.o
 .text.initr_caches
                0x000000000100ab8c       0x18 common/built-in.o
 .text.initr_reloc
                0x000000000100aba4       0x2c common/built-in.o
 .text.cpu_secondary_init_r
                0x000000000100abd0        0x4 common/built-in.o
                0x000000000100abd0                cpu_secondary_init_r
 .text.initr_secondary_cpu
                0x000000000100abd4       0x18 common/built-in.o
 .text.board_init_r
                0x000000000100abec       0x18 common/built-in.o
                0x000000000100abec                board_init_r
 .text.do_go_exec
                0x000000000100ac04       0x20 common/built-in.o
                0x000000000100ac04                do_go_exec
 .text.do_go    0x000000000100ac24       0x88 common/built-in.o
 .text.do_bootm
                0x000000000100acac      0x160 common/built-in.o
                0x000000000100acac                do_bootm
 .text.do_booti
                0x000000000100ae0c      0x168 common/built-in.o
                0x000000000100ae0c                do_booti
 .text.bootm_maybe_autostart
                0x000000000100af74       0x84 common/built-in.o
                0x000000000100af74                bootm_maybe_autostart
 .text.bootm_find_ramdisk_fdt
                0x000000000100aff8      0x180 common/built-in.o
                0x000000000100aff8                bootm_find_ramdisk_fdt
 .text.bootm_disable_interrupts
                0x000000000100b178       0x28 common/built-in.o
                0x000000000100b178                bootm_disable_interrupts
 .text.do_bootm_states
                0x000000000100b1a0      0xa64 common/built-in.o
                0x000000000100b1a0                do_bootm_states
 .text.copy_args
                0x000000000100bc04       0x74 common/built-in.o
 .text.do_bootm_rtems
                0x000000000100bc78       0x58 common/built-in.o
 .text.do_bootm_plan9
                0x000000000100bcd0       0xc4 common/built-in.o
 .text.do_bootm_standalone
                0x000000000100bd94       0x74 common/built-in.o
 .text.do_bootm_netbsd
                0x000000000100be08      0x124 common/built-in.o
 .text.do_bootvx_fdt
                0x000000000100bf2c      0x114 common/built-in.o
                0x000000000100bf2c                do_bootvx_fdt
 .text.do_bootm_vxworks
                0x000000000100c040       0x3c common/built-in.o
 .text.arch_preboot_os
                0x000000000100c07c        0x4 common/built-in.o
                0x000000000100c07c                arch_preboot_os
 .text.boot_selected_os
                0x000000000100c080       0x74 common/built-in.o
                0x000000000100c080                boot_selected_os
 .text.bootm_os_get_boot_func
                0x000000000100c0f4       0x10 common/built-in.o
                0x000000000100c0f4                bootm_os_get_boot_func
 .text.do_help  0x000000000100c104       0x40 common/built-in.o
 *fill*         0x000000000100c144        0x4 
 .text.do_version
                0x000000000100c148       0x48 common/built-in.o
 .text.get_partitions_table
                0x000000000100c190       0x34 common/built-in.o
                0x000000000100c190                get_partitions_table
 .text.get_partition_count
                0x000000000100c1c4       0x10 common/built-in.o
                0x000000000100c1c4                get_partition_count
 .text.get_partitions
                0x000000000100c1d4       0x10 common/built-in.o
                0x000000000100c1d4                get_partitions
 .text.free_partitions
                0x000000000100c1e4       0x38 common/built-in.o
                0x000000000100c1e4                free_partitions
 .text.check_valid_dts
                0x000000000100c21c       0xb0 common/built-in.o
                0x000000000100c21c                check_valid_dts
 .text.get_partition_from_dts
                0x000000000100c2cc      0x324 common/built-in.o
                0x000000000100c2cc                get_partition_from_dts
 .text.env_attr_walk
                0x000000000100c5f0      0x12c common/built-in.o
                0x000000000100c5f0                env_attr_walk
 .text.env_attr_lookup
                0x000000000100c71c      0x1ac common/built-in.o
                0x000000000100c71c                env_attr_lookup
 .text.clear_callback
                0x000000000100c8c8        0xc common/built-in.o
 .text.find_env_callback
                0x000000000100c8d4       0x74 common/built-in.o
 .text.on_callbacks
                0x000000000100c948       0x58 common/built-in.o
 .text.set_callback
                0x000000000100c9a0       0x90 common/built-in.o
 .text.env_callback_init
                0x000000000100ca30       0xc8 common/built-in.o
                0x000000000100ca30                env_callback_init
 .text.skip_num
                0x000000000100caf8       0x70 common/built-in.o
 .text.clear_flags
                0x000000000100cb68        0xc common/built-in.o
 .text.on_flags
                0x000000000100cb74       0x58 common/built-in.o
 .text.env_flags_parse_vartype
                0x000000000100cbcc       0x64 common/built-in.o
                0x000000000100cbcc                env_flags_parse_vartype
 .text.env_flags_parse_varaccess
                0x000000000100cc30       0x70 common/built-in.o
                0x000000000100cc30                env_flags_parse_varaccess
 .text.set_flags
                0x000000000100cca0       0xac common/built-in.o
 .text.env_flags_init
                0x000000000100cd4c       0xd8 common/built-in.o
                0x000000000100cd4c                env_flags_init
 .text.env_flags_validate
                0x000000000100ce24      0x31c common/built-in.o
                0x000000000100ce24                env_flags_validate
 .text.env_init
                0x000000000100d140       0x1c common/built-in.o
                0x000000000100d140                env_init
 .text.saveenv  0x000000000100d15c       0x54 common/built-in.o
                0x000000000100d15c                saveenv
 .text.env_relocate_spec
                0x000000000100d1b0       0x38 common/built-in.o
                0x000000000100d1b0                env_relocate_spec
 .text.amlnand_saveenv
                0x000000000100d1e8       0x48 common/built-in.o
                0x000000000100d1e8                amlnand_saveenv
 .text.amlnand_env_relocate_spec
                0x000000000100d230       0x74 common/built-in.o
                0x000000000100d230                amlnand_env_relocate_spec
 .text.init_mmc_for_env
                0x000000000100d2a4       0x38 common/built-in.o
 .text.mmc_get_env_addr
                0x000000000100d2dc       0x74 common/built-in.o
                0x000000000100d2dc                mmc_get_env_addr
 .text.mmc_saveenv
                0x000000000100d350      0x110 common/built-in.o
                0x000000000100d350                mmc_saveenv
 .text.mmc_env_relocate_spec
                0x000000000100d460       0xd0 common/built-in.o
                0x000000000100d460                mmc_env_relocate_spec
 .text.autoscript
                0x000000000100d530      0x20c common/built-in.o
                0x000000000100d530                autoscript
 .text.do_autoscript
                0x000000000100d73c       0x78 common/built-in.o
                0x000000000100d73c                do_autoscript
 .text.do_bmp   0x000000000100d7b4       0x68 common/built-in.o
 .text.do_bmp_scale
                0x000000000100d81c       0x34 common/built-in.o
 .text.do_bmp_info
                0x000000000100d850      0x108 common/built-in.o
 .text.bmp_display
                0x000000000100d958       0x40 common/built-in.o
                0x000000000100d958                bmp_display
 .text.do_bmp_display
                0x000000000100d998       0xe0 common/built-in.o
 .text.parse_argv
                0x000000000100da78       0x64 common/built-in.o
 .text.do_icache
                0x000000000100dadc       0x8c common/built-in.o
 .text.do_dcache
                0x000000000100db68       0x8c common/built-in.o
 .text.do_saradc
                0x000000000100dbf4       0x78 common/built-in.o
 .text.do_saradc_12bit
                0x000000000100dc6c       0x78 common/built-in.o
 .text.do_saradc_get_in_range
                0x000000000100dce4       0xd4 common/built-in.o
 .text.do_saradc_getval
                0x000000000100ddb8       0x68 common/built-in.o
 .text.do_saradc_close
                0x000000000100de20       0x34 common/built-in.o
 .text.do_saradc_open
                0x000000000100de54       0x60 common/built-in.o
 .text.do_saradc_get_in_range_12bit
                0x000000000100deb4       0xd4 common/built-in.o
 .text.do_saradc_getval_12bit
                0x000000000100df88       0x68 common/built-in.o
 .text.do_forceupdate
                0x000000000100dff0       0x58 common/built-in.o
 .text.do_irblaster
                0x000000000100e048       0x70 common/built-in.o
 .text.do_ir_close
                0x000000000100e0b8       0x28 common/built-in.o
 .text.do_ir_open
                0x000000000100e0e0       0x28 common/built-in.o
 .text.do_ir_set
                0x000000000100e108       0x84 common/built-in.o
 .text.do_ir_reg
                0x000000000100e18c       0xe8 common/built-in.o
 .text.do_ir_get
                0x000000000100e274       0xc8 common/built-in.o
 .text.do_ir_send
                0x000000000100e33c       0x70 common/built-in.o
 .text.do_ir_test
                0x000000000100e3ac       0x6c common/built-in.o
 .text.do_echo  0x000000000100e418       0xe4 common/built-in.o
 .text.do_exit  0x000000000100e4fc       0x38 common/built-in.o
 .text.do_ext4_size
                0x000000000100e534        0x8 common/built-in.o
                0x000000000100e534                do_ext4_size
 .text.do_ext4_load
                0x000000000100e53c        0x8 common/built-in.o
                0x000000000100e53c                do_ext4_load
 .text.do_ext4_ls
                0x000000000100e544        0x8 common/built-in.o
                0x000000000100e544                do_ext4_ls
 .text.do_fat_size
                0x000000000100e54c        0x8 common/built-in.o
                0x000000000100e54c                do_fat_size
 .text.do_fat_fsload
                0x000000000100e554        0x8 common/built-in.o
                0x000000000100e554                do_fat_fsload
 .text.do_fat_ls
                0x000000000100e55c        0x8 common/built-in.o
 .text.do_fat_fsinfo
                0x000000000100e564       0x9c common/built-in.o
 .text.fdt_valid
                0x000000000100e600       0xcc common/built-in.o
 .text.is_printable_string
                0x000000000100e6cc       0x8c common/built-in.o
 .text.print_data
                0x000000000100e758      0x1d0 common/built-in.o
 .text.set_working_fdt_addr
                0x000000000100e928       0x1c common/built-in.o
                0x000000000100e928                set_working_fdt_addr
 .text.do_fdt   0x000000000100e944      0xea4 common/built-in.o
 .text.fdt_find_and_setprop
                0x000000000100f7e8       0x94 common/built-in.o
                0x000000000100f7e8                fdt_find_and_setprop
 .text.fdt_find_or_add_subnode
                0x000000000100f87c       0x7c common/built-in.o
                0x000000000100f87c                fdt_find_or_add_subnode
 .text.fdt_initrd
                0x000000000100f8f8      0x1d0 common/built-in.o
                0x000000000100f8f8                fdt_initrd
 .text.fdt_instaboot
                0x000000000100fac8      0x1c4 common/built-in.o
                0x000000000100fac8                fdt_instaboot
 .text.fdt_chosen
                0x000000000100fc8c       0xbc common/built-in.o
                0x000000000100fc8c                fdt_chosen
 .text.do_fixup_by_path
                0x000000000100fd48       0x4c common/built-in.o
                0x000000000100fd48                do_fixup_by_path
 .text.fdt_fixup_memory_banks
                0x000000000100fd94      0x1dc common/built-in.o
                0x000000000100fd94                fdt_fixup_memory_banks
 .text.fdt_fixup_memory
                0x000000000100ff70       0x2c common/built-in.o
                0x000000000100ff70                fdt_fixup_memory
 .text.fdt_fixup_ethernet
                0x000000000100ff9c      0x190 common/built-in.o
                0x000000000100ff9c                fdt_fixup_ethernet
 .text.fdt_shrink_to_minimum
                0x000000000101012c       0xc4 common/built-in.o
                0x000000000101012c                fdt_shrink_to_minimum
 .text.is_dtb_encrypt
                0x00000000010101f0       0x60 common/built-in.o
                0x00000000010101f0                is_dtb_encrypt
 .text.get_multi_dt_entry
                0x0000000001010250      0x4b0 common/built-in.o
                0x0000000001010250                get_multi_dt_entry
 .text.gpio_get_description
                0x0000000001010700       0xcc common/built-in.o
 .text.do_gpio  0x00000000010107cc      0x2d8 common/built-in.o
 .text.do_i2c   0x0000000001010aa4       0x70 common/built-in.o
 .text.do_i2c_reset
                0x0000000001010b14       0x24 common/built-in.o
 .text.do_i2c_probe
                0x0000000001010b38       0xb0 common/built-in.o
 .text.get_alen.constprop.4
                0x0000000001010be8       0x38 common/built-in.o
 .text.do_i2c_read
                0x0000000001010c20       0xd8 common/built-in.o
 .text.do_i2c_write
                0x0000000001010cf8      0x110 common/built-in.o
 .text.do_i2c_loop
                0x0000000001010e08      0x104 common/built-in.o
 .text.do_i2c_mw
                0x0000000001010f0c      0x11c common/built-in.o
 .text.mod_i2c_mem.isra.2
                0x0000000001011028      0x254 common/built-in.o
 .text.do_i2c_nm
                0x000000000101127c        0x8 common/built-in.o
 .text.do_i2c_mm
                0x0000000001011284        0x8 common/built-in.o
 .text.do_i2c_md
                0x000000000101128c      0x224 common/built-in.o
 .text.do_i2c_crc
                0x00000000010114b0      0x140 common/built-in.o
 .text.do_i2c_bus_speed
                0x00000000010115f0       0x84 common/built-in.o
 .text.evalexp  0x0000000001011674       0x90 common/built-in.o
 .text.evalstr  0x0000000001011704       0x68 common/built-in.o
 .text.binary_test
                0x000000000101176c      0x19c common/built-in.o
 .text.do_itest
                0x0000000001011908       0xa0 common/built-in.o
 .text.do_RunBcbCommand
                0x00000000010119a8      0x3c4 common/built-in.o
 .text.boot_info_validate
                0x0000000001011d6c       0x3c common/built-in.o
                0x0000000001011d6c                boot_info_validate
 .text.boot_info_reset
                0x0000000001011da8       0x6c common/built-in.o
                0x0000000001011da8                boot_info_reset
 .text.dump_boot_info
                0x0000000001011e14       0x88 common/built-in.o
                0x0000000001011e14                dump_boot_info
 .text.boot_info_set_active_slot
                0x0000000001011e9c       0x7c common/built-in.o
                0x0000000001011e9c                boot_info_set_active_slot
 .text.boot_info_open_partition
                0x0000000001011f18       0x68 common/built-in.o
                0x0000000001011f18                boot_info_open_partition
 .text.boot_info_load
                0x0000000001011f80       0x34 common/built-in.o
                0x0000000001011f80                boot_info_load
 .text.boot_info_save
                0x0000000001011fb4       0x60 common/built-in.o
                0x0000000001011fb4                boot_info_save
 .text.do_GetValidSlot
                0x0000000001012014      0x150 common/built-in.o
 .text.do_SetActiveSlot
                0x0000000001012164      0x1a8 common/built-in.o
 .text.do_mem_loop
                0x000000000101230c      0x144 common/built-in.o
 .text.do_mem_md
                0x0000000001012450      0x11c common/built-in.o
 .text.do_mem_cmp
                0x000000000101256c      0x1b4 common/built-in.o
 .text.do_mem_base
                0x0000000001012720       0x54 common/built-in.o
 .text.do_mem_mw
                0x0000000001012774      0x108 common/built-in.o
 .text.do_mem_cp
                0x000000000101287c      0x118 common/built-in.o
 .text.do_mem_crc
                0x0000000001012994       0x40 common/built-in.o
 .text.mod_mem.isra.2
                0x00000000010129d4      0x1fc common/built-in.o
 .text.do_mem_mm
                0x0000000001012bd0        0x8 common/built-in.o
 .text.do_mem_nm
                0x0000000001012bd8        0x8 common/built-in.o
 .text.do_mem_mw_mask
                0x0000000001012be0       0x98 common/built-in.o
                0x0000000001012be0                do_mem_mw_mask
 .text.miiphy_get_dev_by_name
                0x0000000001012c78       0x74 common/built-in.o
                0x0000000001012c78                miiphy_get_dev_by_name
 .text.miiphy_init
                0x0000000001012cec       0x20 common/built-in.o
                0x0000000001012cec                miiphy_init
 .text.mdio_alloc
                0x0000000001012d0c       0x40 common/built-in.o
                0x0000000001012d0c                mdio_alloc
 .text.mdio_register
                0x0000000001012d4c       0x90 common/built-in.o
                0x0000000001012d4c                mdio_register
 .text.do_sleep
                0x0000000001012ddc       0x84 common/built-in.o
 .text.do_mmcops
                0x0000000001012e60       0xd0 common/built-in.o
 .text.init_mmc_device
                0x0000000001012f30       0x64 common/built-in.o
 .text.do_mmc_lifetime
                0x0000000001012f94       0x54 common/built-in.o
 .text.do_mmc_rescan
                0x0000000001012fe8       0x2c common/built-in.o
 .text.do_mmc_ext_csd
                0x0000000001013014       0xec common/built-in.o
 .text.do_mmc_list
                0x0000000001013100       0x1c common/built-in.o
 .text.do_mmc_dev
                0x000000000101311c      0x154 common/built-in.o
 .text.do_mmc_part
                0x0000000001013270       0x64 common/built-in.o
 .text.do_mmc_erase
                0x00000000010132d4      0x118 common/built-in.o
 .text.do_mmc_write
                0x00000000010133ec      0x12c common/built-in.o
 .text.do_mmc_read
                0x0000000001013518      0x110 common/built-in.o
 .text.do_mmcinfo
                0x0000000001013628      0x1a0 common/built-in.o
 .text.do_mmc_test
                0x00000000010137c8      0x440 common/built-in.o
 .text.do_mmc_setdsr
                0x0000000001013c08       0xc0 common/built-in.o
 .text.generic_ffs
                0x0000000001013cc8       0x60 common/built-in.o
 .text._dtb_read.isra.1
                0x0000000001013d28       0x68 common/built-in.o
 .text._dtb_write.isra.2
                0x0000000001013d90       0x68 common/built-in.o
 .text._dtb_init
                0x0000000001013df8       0x6c common/built-in.o
 .text.get_off_size.isra.4
                0x0000000001013e64       0x98 common/built-in.o
 .text._calc_dtb_checksum
                0x0000000001013efc       0x68 common/built-in.o
 .text.emmckey_is_protected
                0x0000000001013f64       0x44 common/built-in.o
                0x0000000001013f64                emmckey_is_protected
 .text.mmc_read_status
                0x0000000001013fa8      0x104 common/built-in.o
                0x0000000001013fa8                mmc_read_status
 .text.do_amlmmcops
                0x00000000010140ac     0x1354 common/built-in.o
                0x00000000010140ac                do_amlmmcops
 .text.dtb_read
                0x0000000001015400      0x5a8 common/built-in.o
                0x0000000001015400                dtb_read
 .text.dtb_write
                0x00000000010159a8      0x1b4 common/built-in.o
                0x00000000010159a8                dtb_write
 .text.renew_partition_tbl
                0x0000000001015b5c       0x64 common/built-in.o
                0x0000000001015b5c                renew_partition_tbl
 .text.do_amlmmc_dtb_key
                0x0000000001015bc0      0x2dc common/built-in.o
                0x0000000001015bc0                do_amlmmc_dtb_key
 .text.emmc_update_mbr
                0x0000000001015e9c       0xa4 common/built-in.o
                0x0000000001015e9c                emmc_update_mbr
 .text.do_store
                0x0000000001015f40       0x70 common/built-in.o
 .text.do_store_mbr_ops
                0x0000000001015fb0       0xc8 common/built-in.o
 .text.do_store_key_ops
                0x0000000001016078      0x184 common/built-in.o
 .text.do_store_scrub
                0x00000000010161fc      0x170 common/built-in.o
 .text.do_store_size
                0x000000000101636c      0x114 common/built-in.o
 .text.do_store_dtb_ops
                0x0000000001016480      0x27c common/built-in.o
 .text.get_off_size
                0x00000000010166fc      0x1a4 common/built-in.o
 .text.do_store_rom_write
                0x00000000010168a0      0x23c common/built-in.o
 .text.do_store_rom_read
                0x0000000001016adc      0x214 common/built-in.o
 .text.do_store_write
                0x0000000001016cf0      0x160 common/built-in.o
 .text.do_store_read
                0x0000000001016e50      0x168 common/built-in.o
 .text.do_store_erase
                0x0000000001016fb8      0x4ec common/built-in.o
 .text.do_store_init
                0x00000000010174a4      0x3c0 common/built-in.o
 .text.do_store_disprotect
                0x0000000001017864       0xc4 common/built-in.o
 .text.do_store_rom_protect
                0x0000000001017928       0x6c common/built-in.o
 .text.do_store_exit
                0x0000000001017994       0x54 common/built-in.o
 .text.store_key_read
                0x00000000010179e8       0x8c common/built-in.o
                0x00000000010179e8                store_key_read
 .text.store_key_write
                0x0000000001017a74       0x8c common/built-in.o
                0x0000000001017a74                store_key_write
 .text.store_read_ops
                0x0000000001017b00       0xb8 common/built-in.o
                0x0000000001017b00                store_read_ops
 .text.store_write_ops
                0x0000000001017bb8       0x94 common/built-in.o
                0x0000000001017bb8                store_write_ops
 .text.store_get_partititon_size
                0x0000000001017c4c       0x74 common/built-in.o
                0x0000000001017c4c                store_get_partititon_size
 .text.store_erase_ops
                0x0000000001017cc0       0xf0 common/built-in.o
                0x0000000001017cc0                store_erase_ops
 .text.store_boot_read
                0x0000000001017db0       0x80 common/built-in.o
                0x0000000001017db0                store_boot_read
 .text.store_boot_write
                0x0000000001017e30       0x80 common/built-in.o
                0x0000000001017e30                store_boot_write
 .text.store_init
                0x0000000001017eb0       0x58 common/built-in.o
                0x0000000001017eb0                store_init
 .text.store_exit
                0x0000000001017f08       0x70 common/built-in.o
                0x0000000001017f08                store_exit
 .text.store_dtb_rw
                0x0000000001017f78       0x60 common/built-in.o
                0x0000000001017f78                store_dtb_rw
 .text.do_image_read
                0x0000000001017fd8       0x78 common/built-in.o
 .text._aml_get_secure_boot_kernel_size
                0x0000000001018050      0x130 common/built-in.o
 .text.do_image_read_kernel
                0x0000000001018180      0x210 common/built-in.o
 .text.do_image_read_dtb
                0x0000000001018390      0x2f4 common/built-in.o
 .text.img_res_check_log_header
                0x0000000001018684       0x78 common/built-in.o
 .text.do_image_read_res
                0x00000000010186fc      0x120 common/built-in.o
 .text.do_unpackimg
                0x000000000101881c      0x1dc common/built-in.o
 .text.do_image_read_pic
                0x00000000010189f8      0x3bc common/built-in.o
 .text.netboot_common
                0x0000000001018db4      0x288 common/built-in.o
 .text.do_bootp
                0x000000000101903c        0xc common/built-in.o
 .text.do_rarpb
                0x0000000001019048        0xc common/built-in.o
                0x0000000001019048                do_rarpb
 .text.do_dhcp  0x0000000001019054        0xc common/built-in.o
 .text.do_tftpb
                0x0000000001019060       0x54 common/built-in.o
                0x0000000001019060                do_tftpb
 .text.do_ping  0x00000000010190b4       0x78 common/built-in.o
 .text.do_false
                0x000000000101912c        0x8 common/built-in.o
 .text.do_true  0x0000000001019134        0x8 common/built-in.o
 .text.do_test  0x000000000101913c      0x328 common/built-in.o
 .text.usb_get_class_desc
                0x0000000001019464       0xc0 common/built-in.o
 .text.usb_display_class_sub
                0x0000000001019524      0x18c common/built-in.o
 .text.usb_find_device
                0x00000000010196b0       0x48 common/built-in.o
 .text.usb_show_tree_graph
                0x00000000010196f8      0x21c common/built-in.o
 .text.usb_display_string
                0x0000000001019914       0x48 common/built-in.o
 .text.usb_display_config
                0x000000000101995c      0x25c common/built-in.o
 .text.do_usbboot
                0x0000000001019bb8        0xc common/built-in.o
 .text.usb_display_desc.part.2
                0x0000000001019bc4      0x114 common/built-in.o
 .text.do_usb   0x0000000001019cd8      0x7a4 common/built-in.o
 .text.usb_set_maxpacket_ep
                0x000000000101a47c       0x74 common/built-in.o
 .text._mdelay  0x000000000101a4f0       0x30 common/built-in.o
                0x000000000101a4f0                _mdelay
 .text.usb_stop
                0x000000000101a520       0x54 common/built-in.o
                0x000000000101a520                usb_stop
 .text.usb_disable_asynch
                0x000000000101a574       0x20 common/built-in.o
                0x000000000101a574                usb_disable_asynch
 .text.usb_control_msg
                0x000000000101a594       0xc4 common/built-in.o
                0x000000000101a594                usb_control_msg
 .text.usb_get_descriptor
                0x000000000101a658       0x5c common/built-in.o
 .text.usb_get_string
                0x000000000101a6b4       0xa8 common/built-in.o
 .text.usb_string_sub
                0x000000000101a75c      0x110 common/built-in.o
 .text.usb_set_address
                0x000000000101a86c       0x4c common/built-in.o
 .text.usb_bulk_msg
                0x000000000101a8b8       0x78 common/built-in.o
                0x000000000101a8b8                usb_bulk_msg
 .text.usb_maxpacket
                0x000000000101a930       0x20 common/built-in.o
                0x000000000101a930                usb_maxpacket
 .text.usb_clear_halt
                0x000000000101a950       0xa4 common/built-in.o
                0x000000000101a950                usb_clear_halt
 .text.usb_get_configuration_no
                0x000000000101a9f4       0xd0 common/built-in.o
                0x000000000101a9f4                usb_get_configuration_no
 .text.usb_set_interface
                0x000000000101aac4       0xb4 common/built-in.o
                0x000000000101aac4                usb_set_interface
 .text.usb_string
                0x000000000101ab78      0x114 common/built-in.o
                0x000000000101ab78                usb_string
 .text.usb_get_dev_index
                0x000000000101ac8c       0x28 common/built-in.o
                0x000000000101ac8c                usb_get_dev_index
 .text.usb_alloc_new_device
                0x000000000101acb4       0xa0 common/built-in.o
                0x000000000101acb4                usb_alloc_new_device
 .text.usb_free_device
                0x000000000101ad54       0x64 common/built-in.o
                0x000000000101ad54                usb_free_device
 .text.usb_new_device
                0x000000000101adb8      0x638 common/built-in.o
                0x000000000101adb8                usb_new_device
 .text.usb_init
                0x000000000101b3f0      0x170 common/built-in.o
                0x000000000101b3f0                usb_init
 .text.usb_set_port_feature
                0x000000000101b560       0x50 common/built-in.o
 .text.usb_hub_power_on
                0x000000000101b5b0       0x5c common/built-in.o
 .text.usb_get_port_status
                0x000000000101b60c       0x58 common/built-in.o
 .text.usb_clear_port_feature
                0x000000000101b664       0x50 common/built-in.o
 .text.usb_get_hub_descriptor
                0x000000000101b6b4       0x58 common/built-in.o
 .text.usb_hub_reset_devices
                0x000000000101b70c        0x4 common/built-in.o
                0x000000000101b70c                usb_hub_reset_devices
 .text.usb_hub_reset
                0x000000000101b710       0x10 common/built-in.o
                0x000000000101b710                usb_hub_reset
 .text.hub_port_reset
                0x000000000101b720       0xa8 common/built-in.o
                0x000000000101b720                hub_port_reset
 .text.usb_hub_port_connect_change
                0x000000000101b7c8      0x144 common/built-in.o
                0x000000000101b7c8                usb_hub_port_connect_change
 .text.usb_hub_configure
                0x000000000101b90c      0x2e4 common/built-in.o
 .text.usb_hub_probe
                0x000000000101bbf0       0x5c common/built-in.o
                0x000000000101bbf0                usb_hub_probe
 .text.usb_stor_irq
                0x000000000101bc4c       0x18 common/built-in.o
 .text.usb_stor_BBB_reset
                0x000000000101bc64       0xdc common/built-in.o
 .text.usb_stor_CB_reset
                0x000000000101bd40       0xdc common/built-in.o
 .text.usb_stor_BBB_clear_endpt_stall.isra.2
                0x000000000101be1c       0x50 common/built-in.o
 .text.usb_stor_BBB_transport
                0x000000000101be6c      0x24c common/built-in.o
 .text.usb_stor_CB_comdat
                0x000000000101c0b8      0x1f8 common/built-in.o
 .text.usb_stor_CBI_get_status.isra.4
                0x000000000101c2b0       0xe0 common/built-in.o
 .text.usb_stor_CB_transport
                0x000000000101c390      0x200 common/built-in.o
 .text.usb_request_sense.constprop.9
                0x000000000101c590       0x8c common/built-in.o
 .text.usb_stor_write
                0x000000000101c61c      0x1cc common/built-in.o
                0x000000000101c61c                usb_stor_write
 .text.usb_stor_read
                0x000000000101c7e8      0x1cc common/built-in.o
                0x000000000101c7e8                usb_stor_read
 .text.usb_stor_get_dev
                0x000000000101c9b4       0x34 common/built-in.o
                0x000000000101c9b4                usb_stor_get_dev
 .text.usb_stor_info
                0x000000000101c9e8       0x98 common/built-in.o
                0x000000000101c9e8                usb_stor_info
 .text.usb_storage_probe
                0x000000000101ca80      0x22c common/built-in.o
                0x000000000101ca80                usb_storage_probe
 .text.usb_stor_get_info
                0x000000000101ccac      0x33c common/built-in.o
                0x000000000101ccac                usb_stor_get_info
 .text.usb_stor_scan
                0x000000000101cfe8      0x220 common/built-in.o
                0x000000000101cfe8                usb_stor_scan
 .text.do_fastboot
                0x000000000101d208       0x4c common/built-in.o
 .text.do_vpu   0x000000000101d254       0x78 common/built-in.o
 .text.do_vpu_info
                0x000000000101d2cc       0x18 common/built-in.o
 .text.do_vpu_test
                0x000000000101d2e4       0x18 common/built-in.o
 .text.do_vpu_clk
                0x000000000101d2fc       0x84 common/built-in.o
 .text.do_vpu_disable
                0x000000000101d380       0x18 common/built-in.o
 .text.do_vpu_enable
                0x000000000101d398       0x18 common/built-in.o
 .text.do_query
                0x000000000101d3b0       0xc4 common/built-in.o
 .text.cmd_efuse
                0x000000000101d474      0x51c common/built-in.o
                0x000000000101d474                cmd_efuse
 .text.do_efuse
                0x000000000101d990       0x5c common/built-in.o
                0x000000000101d990                do_efuse
 .text.adc_init_chan6
                0x000000000101d9ec      0x2c4 common/built-in.o
 .text.do_read_calib_data
                0x000000000101dcb0      0x108 common/built-in.o
 .text.do_write_version
                0x000000000101ddb8       0x28 common/built-in.o
 .text.do_set_trim_base
                0x000000000101dde0       0x40 common/built-in.o
 .text.do_temp_triming
                0x000000000101de20       0xa4 common/built-in.o
 .text.get_adc_sample.isra.0
                0x000000000101dec4      0x38c common/built-in.o
 .text.do_read_temp
                0x000000000101e250      0x260 common/built-in.o
 .text.quicksort
                0x000000000101e4b0       0xc8 common/built-in.o
                0x000000000101e4b0                quicksort
 .text.do_write_trim
                0x000000000101e578      0x598 common/built-in.o
 .text.do_clkmsr
                0x000000000101eb10       0x34 common/built-in.o
 .text.do_env_delete
                0x000000000101eb44       0xc4 common/built-in.o
 .text.do_env_save
                0x000000000101ec08       0x30 common/built-in.o
 .text.do_env   0x000000000101ec38       0x70 common/built-in.o
 .text.env_print
                0x000000000101eca8       0xcc common/built-in.o
 .text.do_env_print
                0x000000000101ed74       0xe4 common/built-in.o
 .text.do_env_import
                0x000000000101ee58      0x270 common/built-in.o
 .text.do_env_default
                0x000000000101f0c8       0x98 common/built-in.o
 .text._do_env_set.isra.1
                0x000000000101f160      0x1dc common/built-in.o
 .text.do_env_set
                0x000000000101f33c       0x1c common/built-in.o
 .text.get_env_id
                0x000000000101f358       0x10 common/built-in.o
                0x000000000101f358                get_env_id
 .text.setenv   0x000000000101f368       0x54 common/built-in.o
                0x000000000101f368                setenv
 .text.setenv_ulong
                0x000000000101f3bc       0x2c common/built-in.o
                0x000000000101f3bc                setenv_ulong
 .text.setenv_hex
                0x000000000101f3e8       0x3c common/built-in.o
                0x000000000101f3e8                setenv_hex
 .text.do_env_export
                0x000000000101f424      0x260 common/built-in.o
 .text.envmatch
                0x000000000101f684       0x80 common/built-in.o
                0x000000000101f684                envmatch
 .text.getenv_f
                0x000000000101f704       0xf8 common/built-in.o
                0x000000000101f704                getenv_f
 .text.getenv   0x000000000101f7fc       0x80 common/built-in.o
                0x000000000101f7fc                getenv
 .text.getenv_hex
                0x000000000101f87c       0x48 common/built-in.o
                0x000000000101f87c                getenv_hex
 .text.getenv_ulong
                0x000000000101f8c4       0x44 common/built-in.o
                0x000000000101f8c4                getenv_ulong
 .text.env_get_char_spec
                0x000000000101f908        0xc common/built-in.o
                0x000000000101f908                env_get_char_spec
 .text.env_get_addr
                0x000000000101f914       0x24 common/built-in.o
                0x000000000101f914                env_get_addr
 .text.env_get_char_memory
                0x000000000101f938       0x18 common/built-in.o
                0x000000000101f938                env_get_char_memory
 .text.env_get_char
                0x000000000101f950       0x2c common/built-in.o
                0x000000000101f950                env_get_char
 .text.getenv_yesno
                0x000000000101f97c       0x48 common/built-in.o
                0x000000000101f97c                getenv_yesno
 .text.getenv_default
                0x000000000101f9c4       0x3c common/built-in.o
                0x000000000101f9c4                getenv_default
 .text.set_default_env
                0x000000000101fa00       0xc0 common/built-in.o
                0x000000000101fa00                set_default_env
 .text.set_default_vars
                0x000000000101fac0       0x2c common/built-in.o
                0x000000000101fac0                set_default_vars
 .text.env_import
                0x000000000101faec       0xf0 common/built-in.o
                0x000000000101faec                env_import
 .text.env_export
                0x000000000101fbdc       0x94 common/built-in.o
                0x000000000101fbdc                env_export
 .text.env_relocate
                0x000000000101fc70       0x78 common/built-in.o
                0x000000000101fc70                env_relocate
 .text.do_defenv_reserv
                0x000000000101fce8      0x1f8 common/built-in.o
 .text.console_setfile
                0x000000000101fee0       0xbc common/built-in.o
 .text.on_silent
                0x000000000101ff9c       0x2c common/built-in.o
 .text.print_to_buf
                0x000000000101ffc8      0x110 common/built-in.o
 .text.do_silent
                0x00000000010200d8       0x78 common/built-in.o
 .text.puts     0x0000000001020150       0x50 common/built-in.o
                0x0000000001020150                puts
 .text.printf   0x00000000010201a0       0xe0 common/built-in.o
                0x00000000010201a0                printf
 .text.fgetc    0x0000000001020280       0x34 common/built-in.o
                0x0000000001020280                fgetc
 .text.getc     0x00000000010202b4       0x20 common/built-in.o
                0x00000000010202b4                getc
 .text.ftstc    0x00000000010202d4       0x34 common/built-in.o
                0x00000000010202d4                ftstc
 .text.tstc     0x0000000001020308       0x20 common/built-in.o
                0x0000000001020308                tstc
 .text.fputc    0x0000000001020328       0x30 common/built-in.o
                0x0000000001020328                fputc
 .text.putc     0x0000000001020358       0x54 common/built-in.o
                0x0000000001020358                putc
 .text.flush_print_buf
                0x00000000010203ac       0xf8 common/built-in.o
                0x00000000010203ac                flush_print_buf
 .text.destory_print_buf
                0x00000000010204a4       0x44 common/built-in.o
                0x00000000010204a4                destory_print_buf
 .text.vprintf  0x00000000010204e8       0x50 common/built-in.o
                0x00000000010204e8                vprintf
 .text.ctrlc    0x0000000001020538       0x64 common/built-in.o
                0x0000000001020538                ctrlc
 .text.had_ctrlc
                0x000000000102059c       0x10 common/built-in.o
                0x000000000102059c                had_ctrlc
 .text.clear_ctrlc
                0x00000000010205ac       0x10 common/built-in.o
                0x00000000010205ac                clear_ctrlc
 .text.search_device
                0x00000000010205bc       0x3c common/built-in.o
                0x00000000010205bc                search_device
 .text.console_assign
                0x00000000010205f8       0x5c common/built-in.o
                0x00000000010205f8                console_assign
 .text.on_console
                0x0000000001020654       0xc4 common/built-in.o
 .text.console_init_f
                0x0000000001020718       0x10 common/built-in.o
                0x0000000001020718                console_init_f
 .text.console_init_m
                0x0000000001020728       0x54 common/built-in.o
                0x0000000001020728                console_init_m
 .text.stdio_print_current_devices
                0x000000000102077c       0xc0 common/built-in.o
                0x000000000102077c                stdio_print_current_devices
 .text.console_init_r
                0x000000000102083c       0xd8 common/built-in.o
                0x000000000102083c                console_init_r
 .text.sbrk     0x0000000001020914       0x84 common/built-in.o
                0x0000000001020914                sbrk
 .text.mem_malloc_init
                0x0000000001020998       0x34 common/built-in.o
                0x0000000001020998                mem_malloc_init
 .text.malloc_trim
                0x00000000010209cc       0xe0 common/built-in.o
                0x00000000010209cc                malloc_trim
 .text.free     0x0000000001020aac      0x254 common/built-in.o
                0x0000000001020aac                free
 .text.malloc   0x0000000001020d00      0x6ac common/built-in.o
                0x0000000001020d00                malloc
 .text.calloc   0x00000000010213ac       0xdc common/built-in.o
                0x00000000010213ac                calloc
 .text.realloc  0x0000000001021488      0x514 common/built-in.o
                0x0000000001021488                realloc
 .text.memalign
                0x000000000102199c      0x12c common/built-in.o
                0x000000000102199c                memalign
 .text.on_loadaddr
                0x0000000001021ac8       0x3c common/built-in.o
 .text.image_check_hcrc
                0x0000000001021b04       0x50 common/built-in.o
                0x0000000001021b04                image_check_hcrc
 .text.image_check_dcrc
                0x0000000001021b54       0x44 common/built-in.o
                0x0000000001021b54                image_check_dcrc
 .text.image_multi_count
                0x0000000001021b98       0x20 common/built-in.o
                0x0000000001021b98                image_multi_count
 .text.image_multi_getimg
                0x0000000001021bb8       0xa0 common/built-in.o
                0x0000000001021bb8                image_multi_getimg
 .text.getenv_bootm_low
                0x0000000001021c58       0x30 common/built-in.o
                0x0000000001021c58                getenv_bootm_low
 .text.getenv_bootm_size
                0x0000000001021c88       0x64 common/built-in.o
                0x0000000001021c88                getenv_bootm_size
 .text.getenv_bootm_mapsize
                0x0000000001021cec       0x30 common/built-in.o
                0x0000000001021cec                getenv_bootm_mapsize
 .text.memmove_wd
                0x0000000001021d1c       0x10 common/built-in.o
                0x0000000001021d1c                memmove_wd
 .text.genimg_print_size
                0x0000000001021d2c       0x38 common/built-in.o
                0x0000000001021d2c                genimg_print_size
 .text.get_table_entry_name
                0x0000000001021d64       0x28 common/built-in.o
                0x0000000001021d64                get_table_entry_name
 .text.genimg_get_os_name
                0x0000000001021d8c       0x18 common/built-in.o
                0x0000000001021d8c                genimg_get_os_name
 .text.genimg_get_arch_name
                0x0000000001021da4       0x18 common/built-in.o
                0x0000000001021da4                genimg_get_arch_name
 .text.genimg_get_type_name
                0x0000000001021dbc       0x18 common/built-in.o
                0x0000000001021dbc                genimg_get_type_name
 .text.genimg_get_comp_name
                0x0000000001021dd4       0x18 common/built-in.o
                0x0000000001021dd4                genimg_get_comp_name
 .text.image_print_contents
                0x0000000001021dec      0x1a8 common/built-in.o
                0x0000000001021dec                image_print_contents
 .text.get_table_entry_id
                0x0000000001021f94       0x54 common/built-in.o
                0x0000000001021f94                get_table_entry_id
 .text.genimg_get_os_id
                0x0000000001021fe8       0x18 common/built-in.o
                0x0000000001021fe8                genimg_get_os_id
 .text.genimg_get_arch_id
                0x0000000001022000       0x18 common/built-in.o
                0x0000000001022000                genimg_get_arch_id
 .text.genimg_get_type_id
                0x0000000001022018       0x18 common/built-in.o
                0x0000000001022018                genimg_get_type_id
 .text.genimg_get_comp_id
                0x0000000001022030       0x18 common/built-in.o
                0x0000000001022030                genimg_get_comp_id
 .text.genimg_get_kernel_addr_fit
                0x0000000001022048       0x80 common/built-in.o
                0x0000000001022048                genimg_get_kernel_addr_fit
 .text.genimg_get_format
                0x00000000010220c8       0x5c common/built-in.o
                0x00000000010220c8                genimg_get_format
 .text.genimg_get_image
                0x0000000001022124        0x4 common/built-in.o
                0x0000000001022124                genimg_get_image
 .text.genimg_has_config
                0x0000000001022128       0x10 common/built-in.o
                0x0000000001022128                genimg_has_config
 .text.boot_get_ramdisk
                0x0000000001022138      0x354 common/built-in.o
                0x0000000001022138                boot_get_ramdisk
 .text.boot_ramdisk_high
                0x000000000102248c      0x130 common/built-in.o
                0x000000000102248c                boot_ramdisk_high
 .text.boot_get_setup
                0x00000000010225bc        0x4 common/built-in.o
                0x00000000010225bc                boot_get_setup
 .text.image_setup_linux
                0x00000000010225c0       0x80 common/built-in.o
                0x00000000010225c0                image_setup_linux
 .text.android_image_get_kernel
                0x0000000001022640      0x188 common/built-in.o
                0x0000000001022640                android_image_get_kernel
 .text.android_image_check_header
                0x00000000010227c8       0x14 common/built-in.o
                0x00000000010227c8                android_image_check_header
 .text.android_image_get_end
                0x00000000010227dc       0x4c common/built-in.o
                0x00000000010227dc                android_image_get_end
 .text.android_image_get_kload
                0x0000000001022828        0x8 common/built-in.o
                0x0000000001022828                android_image_get_kload
 .text.android_image_get_ramdisk
                0x0000000001022830       0x44 common/built-in.o
                0x0000000001022830                android_image_get_ramdisk
 .text.android_image_get_comp
                0x0000000001022874       0x60 common/built-in.o
                0x0000000001022874                android_image_get_comp
 .text.android_image_need_move
                0x00000000010228d4       0xd8 common/built-in.o
                0x00000000010228d4                android_image_need_move
 .text.fdt_error
                0x00000000010229ac       0x38 common/built-in.o
 .text.boot_fdt_add_mem_rsv_regions
                0x00000000010229e4       0x9c common/built-in.o
                0x00000000010229e4                boot_fdt_add_mem_rsv_regions
 .text.boot_relocate_fdt
                0x0000000001022a80      0x1a4 common/built-in.o
                0x0000000001022a80                boot_relocate_fdt
 .text.boot_get_fdt
                0x0000000001022c24      0x3d4 common/built-in.o
                0x0000000001022c24                boot_get_fdt
 .text.ft_verify_fdt
                0x0000000001022ff8        0x8 common/built-in.o
                0x0000000001022ff8                ft_verify_fdt
 .text.image_setup_libfdt
                0x0000000001023000       0xfc common/built-in.o
                0x0000000001023000                image_setup_libfdt
 .text.fit_parse_conf
                0x00000000010230fc       0x74 common/built-in.o
                0x00000000010230fc                fit_parse_conf
 .text.fit_parse_subimage
                0x0000000001023170       0x74 common/built-in.o
                0x0000000001023170                fit_parse_subimage
 .text.fit_get_desc
                0x00000000010231e4       0x38 common/built-in.o
                0x00000000010231e4                fit_get_desc
 .text.fit_image_get_node
                0x000000000102321c       0x4c common/built-in.o
                0x000000000102321c                fit_image_get_node
 .text.fit_image_get_os
                0x0000000001023268       0x4c common/built-in.o
                0x0000000001023268                fit_image_get_os
 .text.fit_image_get_arch
                0x00000000010232b4       0x4c common/built-in.o
                0x00000000010232b4                fit_image_get_arch
 .text.fit_image_get_type
                0x0000000001023300       0x4c common/built-in.o
                0x0000000001023300                fit_image_get_type
 .text.fit_image_get_comp
                0x000000000102334c       0x4c common/built-in.o
                0x000000000102334c                fit_image_get_comp
 .text.fit_image_get_load
                0x0000000001023398       0x48 common/built-in.o
                0x0000000001023398                fit_image_get_load
 .text.fit_image_get_entry
                0x00000000010233e0       0x48 common/built-in.o
                0x00000000010233e0                fit_image_get_entry
 .text.fit_image_get_data
                0x0000000001023428       0x50 common/built-in.o
                0x0000000001023428                fit_image_get_data
 .text.fit_image_hash_get_algo
                0x0000000001023478       0x38 common/built-in.o
                0x0000000001023478                fit_image_hash_get_algo
 .text.fit_image_hash_get_value
                0x00000000010234b0       0x50 common/built-in.o
                0x00000000010234b0                fit_image_hash_get_value
 .text.fit_image_print_data
                0x0000000001023500      0x15c common/built-in.o
 .text.fit_image_print
                0x000000000102365c      0x374 common/built-in.o
                0x000000000102365c                fit_image_print
 .text.calculate_hash
                0x00000000010239d0      0x11c common/built-in.o
                0x00000000010239d0                calculate_hash
 .text.fit_image_verify
                0x0000000001023aec      0x228 common/built-in.o
                0x0000000001023aec                fit_image_verify
 .text.fit_image_check_os
                0x0000000001023d14       0x3c common/built-in.o
                0x0000000001023d14                fit_image_check_os
 .text.fit_image_check_arch
                0x0000000001023d50       0x54 common/built-in.o
                0x0000000001023d50                fit_image_check_arch
 .text.fit_image_check_type
                0x0000000001023da4       0x3c common/built-in.o
                0x0000000001023da4                fit_image_check_type
 .text.fit_image_check_comp
                0x0000000001023de0       0x3c common/built-in.o
                0x0000000001023de0                fit_image_check_comp
 .text.fit_check_format
                0x0000000001023e1c       0x4c common/built-in.o
                0x0000000001023e1c                fit_check_format
 .text.fit_conf_get_node
                0x0000000001023e68       0x78 common/built-in.o
                0x0000000001023e68                fit_conf_get_node
 .text.fit_conf_get_prop_node
                0x0000000001023ee0       0x3c common/built-in.o
                0x0000000001023ee0                fit_conf_get_prop_node
 .text.fit_conf_print
                0x0000000001023f1c      0x11c common/built-in.o
                0x0000000001023f1c                fit_conf_print
 .text.fit_print_contents
                0x0000000001024038      0x228 common/built-in.o
                0x0000000001024038                fit_print_contents
 .text.fit_get_node_from_config
                0x0000000001024260       0x58 common/built-in.o
                0x0000000001024260                fit_get_node_from_config
 .text.fit_image_load
                0x00000000010242b8      0x4d0 common/built-in.o
                0x00000000010242b8                fit_image_load
 .text.boot_get_setup_fit
                0x0000000001024788       0x84 common/built-in.o
                0x0000000001024788                boot_get_setup_fit
 .text.stdio_serial_tstc
                0x000000000102480c        0x4 common/built-in.o
 .text.stdio_serial_getc
                0x0000000001024810        0x4 common/built-in.o
 .text.stdio_serial_puts
                0x0000000001024814        0x8 common/built-in.o
 .text.stdio_serial_putc
                0x000000000102481c        0x8 common/built-in.o
 .text.stdio_get_list
                0x0000000001024824       0x10 common/built-in.o
                0x0000000001024824                stdio_get_list
 .text.stdio_get_by_name
                0x0000000001024834       0x68 common/built-in.o
                0x0000000001024834                stdio_get_by_name
 .text.stdio_clone
                0x000000000102489c       0x4c common/built-in.o
                0x000000000102489c                stdio_clone
 .text.stdio_register_dev
                0x00000000010248e8       0x60 common/built-in.o
                0x00000000010248e8                stdio_register_dev
 .text.stdio_register
                0x0000000001024948        0x8 common/built-in.o
                0x0000000001024948                stdio_register
 .text.stdio_init_tables
                0x0000000001024950       0x1c common/built-in.o
                0x0000000001024950                stdio_init_tables
 .text.stdio_add_devices
                0x000000000102496c       0x78 common/built-in.o
                0x000000000102496c                stdio_add_devices
 .text.write_sparse_image
                0x00000000010249e4      0x3b8 common/built-in.o
                0x00000000010249e4                write_sparse_image
 .text.fastboot_fail
                0x0000000001024d9c       0x44 common/built-in.o
                0x0000000001024d9c                fastboot_fail
 .text.fastboot_okay
                0x0000000001024de0       0x44 common/built-in.o
                0x0000000001024de0                fastboot_okay
 .text.fb_mmc_flash_write
                0x0000000001024e24      0x270 common/built-in.o
                0x0000000001024e24                fb_mmc_flash_write
 .text.fb_mmc_erase_write
                0x0000000001025094      0x1a8 common/built-in.o
                0x0000000001025094                fb_mmc_erase_write
 .text.do_wipeisb
                0x000000000102523c       0xa8 common/built-in.o
 .text.has_instaboot_part
                0x00000000010252e4       0x84 common/built-in.o
                0x00000000010252e4                has_instaboot_part
 .text.get_instaboot_header
                0x0000000001025368       0xe8 common/built-in.o
                0x0000000001025368                get_instaboot_header
 .text.cli_simple_parse_line
                0x0000000001025450       0x9c common/built-in.o
                0x0000000001025450                cli_simple_parse_line
 .text.run_command
                0x00000000010254ec       0x18 common/built-in.o
                0x00000000010254ec                run_command
 .text.run_command_list
                0x0000000001025504       0x84 common/built-in.o
                0x0000000001025504                run_command_list
 .text.do_run   0x0000000001025588       0x84 common/built-in.o
                0x0000000001025588                do_run
 .text.cli_loop
                0x000000000102560c       0x10 common/built-in.o
                0x000000000102560c                cli_loop
 .text.cli_init
                0x000000000102561c        0x4 common/built-in.o
                0x000000000102561c                cli_init
 .text.delete_char.part.0
                0x0000000001025620       0xfc common/built-in.o
 .text.cli_readline_into_buffer
                0x000000000102571c      0x204 common/built-in.o
                0x000000000102571c                cli_readline_into_buffer
 .text.cli_readline
                0x0000000001025920       0x14 common/built-in.o
                0x0000000001025920                cli_readline
 .text.find_cmd_tbl
                0x0000000001025934       0xc0 common/built-in.o
                0x0000000001025934                find_cmd_tbl
 .text.find_cmd
                0x00000000010259f4       0x28 common/built-in.o
                0x00000000010259f4                find_cmd
 .text.cmd_usage
                0x0000000001025a1c       0x68 common/built-in.o
                0x0000000001025a1c                cmd_usage
 .text._do_help
                0x0000000001025a84      0x1a4 common/built-in.o
                0x0000000001025a84                _do_help
 .text.cmd_get_data_size
                0x0000000001025c28       0x6c common/built-in.o
                0x0000000001025c28                cmd_get_data_size
 .text.cmd_process
                0x0000000001025c94       0xe0 common/built-in.o
                0x0000000001025c94                cmd_process
 .text.cmd_process_error
                0x0000000001025d74       0x34 common/built-in.o
                0x0000000001025d74                cmd_process_error
 .text.common_diskboot
                0x0000000001025da8      0x2bc common/built-in.o
                0x0000000001025da8                common_diskboot
 .text.do_vpp   0x0000000001026064       0x78 common/built-in.o
 .text.do_vpp_pq
                0x00000000010260dc      0x134 common/built-in.o
 .text.do_get_rebootmode
                0x0000000001026210      0x160 common/built-in.o
                0x0000000001026210                do_get_rebootmode
 .text.do_reboot
                0x0000000001026370      0x17c common/built-in.o
                0x0000000001026370                do_reboot
 .text.do_set_usb_boot
                0x00000000010264ec       0x64 common/built-in.o
                0x00000000010264ec                do_set_usb_boot
 .text.do_systemoff
                0x0000000001026550       0x18 common/built-in.o
                0x0000000001026550                do_systemoff
 .text.do_open_scp_log
                0x0000000001026568       0xc0 common/built-in.o
                0x0000000001026568                do_open_scp_log
 .text.hdmi_get_fmt_paras
                0x0000000001026628       0x34 common/built-in.o
                0x0000000001026628                hdmi_get_fmt_paras
 .text.hdmi_parse_attr
                0x000000000102665c      0x108 common/built-in.o
                0x000000000102665c                hdmi_parse_attr
 .text.hdmi_get_fmt_vic
                0x0000000001026764       0xec common/built-in.o
                0x0000000001026764                hdmi_get_fmt_vic
 .text.hdmi_match_dtd_paras
                0x0000000001026850       0xd8 common/built-in.o
                0x0000000001026850                hdmi_match_dtd_paras
 .text.Edid_DTD_parsing
                0x0000000001026928      0x1b0 common/built-in.o
 .text.hdmi_edid_parsing
                0x0000000001026ad8      0x640 common/built-in.o
                0x0000000001026ad8                hdmi_edid_parsing
 .text.do_dump  0x0000000001027118       0x20 common/built-in.o
 .text.do_hdmitx
                0x0000000001027138       0x7c common/built-in.o
 .text.do_info  0x00000000010271b4       0x64 common/built-in.o
 .text.do_off   0x0000000001027218       0x34 common/built-in.o
 .text.do_edid  0x000000000102724c       0xd8 common/built-in.o
 .text.do_blank
                0x0000000001027324       0x78 common/built-in.o
 .text.do_output
                0x000000000102739c      0x238 common/built-in.o
 .text.do_hpd_detect
                0x00000000010275d4       0x74 common/built-in.o
 .text.do_get_preferred_mode
                0x0000000001027648      0x228 common/built-in.o
 .text.do_rx_det
                0x0000000001027870      0x1b0 common/built-in.o
 .text.get_jtag_sel
                0x0000000001027a20       0x80 common/built-in.o
 .text.do_jtagon
                0x0000000001027aa0       0xa0 common/built-in.o
                0x0000000001027aa0                do_jtagon
 .text.do_jtagoff
                0x0000000001027b40       0x50 common/built-in.o
                0x0000000001027b40                do_jtagoff
 .text.do_osd   0x0000000001027b90       0x68 common/built-in.o
 .text.do_osd_display
                0x0000000001027bf8       0xe4 common/built-in.o
 .text.do_osd_test
                0x0000000001027cdc       0x18 common/built-in.o
 .text.do_osd_clear
                0x0000000001027cf4       0x80 common/built-in.o
 .text.do_osd_close
                0x0000000001027d74       0x6c common/built-in.o
 .text.do_osd_enable
                0x0000000001027de0       0x34 common/built-in.o
 .text.do_osd_open
                0x0000000001027e14       0x4c common/built-in.o
 .text.do_osd_debug
                0x0000000001027e60       0x48 common/built-in.o
 .text.do_cvbs  0x0000000001027ea8       0x7c common/built-in.o
 .text.do_vdac  0x0000000001027f24       0x28 common/built-in.o
 .text.do_cvbs_debug
                0x0000000001027f4c       0x48 common/built-in.o
 .text.do_cvbs_init
                0x0000000001027f94       0x18 common/built-in.o
 .text.do_cvbs_output
                0x0000000001027fac       0xcc common/built-in.o
 .text.do_vout  0x0000000001028078       0x7c common/built-in.o
 .text.do_vout_list
                0x00000000010280f4       0x3c common/built-in.o
 .text.do_vout_output
                0x0000000001028130       0x68 common/built-in.o
 .text.do_rsvmem
                0x0000000001028198       0x68 common/built-in.o
 .text.do_rsvmem_dump
                0x0000000001028200       0x8c common/built-in.o
 .text.do_rsvmem_check
                0x000000000102828c      0x410 common/built-in.o
 .text.do_chipid
                0x000000000102869c       0x78 common/built-in.o
 .text.get_dev_hwpart
                0x0000000001028714       0xb4 disk/built-in.o
 .text.print_part_header
                0x00000000010287c8       0xd0 disk/built-in.o
 .text.get_dev  0x0000000001028898        0x8 disk/built-in.o
                0x0000000001028898                get_dev
 .text.dev_print
                0x00000000010288a0      0x1c4 disk/built-in.o
                0x00000000010288a0                dev_print
 .text.init_part
                0x0000000001028a64       0x78 disk/built-in.o
                0x0000000001028a64                init_part
 .text.print_part
                0x0000000001028adc       0x78 disk/built-in.o
                0x0000000001028adc                print_part
 .text.get_partition_info
                0x0000000001028b54       0x40 disk/built-in.o
                0x0000000001028b54                get_partition_info
 .text.get_device
                0x0000000001028b94      0x130 disk/built-in.o
                0x0000000001028b94                get_device
 .text.get_device_and_partition
                0x0000000001028cc4      0x410 disk/built-in.o
                0x0000000001028cc4                get_device_and_partition
 .text.test_block_type
                0x00000000010290d4       0x88 disk/built-in.o
 .text.print_partition_extended
                0x000000000102915c      0x268 disk/built-in.o
 .text.get_partition_info_extended.constprop.2
                0x00000000010293c4      0x2dc disk/built-in.o
 .text.test_part_dos
                0x00000000010296a0       0x78 disk/built-in.o
                0x00000000010296a0                test_part_dos
 .text.print_part_dos
                0x0000000001029718       0x3c disk/built-in.o
                0x0000000001029718                print_part_dos
 .text.get_partition_info_dos
                0x0000000001029754       0x18 disk/built-in.o
                0x0000000001029754                get_partition_info_dos
 .text._get_partition_info_aml.isra.0
                0x000000000102976c       0x7c disk/built-in.o
 .text.get_partition_info_aml
                0x00000000010297e8        0x4 disk/built-in.o
                0x00000000010297e8                get_partition_info_aml
 .text.get_partition_info_aml_by_name
                0x00000000010297ec        0x4 disk/built-in.o
                0x00000000010297ec                get_partition_info_aml_by_name
 .text.print_part_aml
                0x00000000010297f0       0xa4 disk/built-in.o
                0x00000000010297f0                print_part_aml
 .text.test_part_aml
                0x0000000001029894       0x88 disk/built-in.o
                0x0000000001029894                test_part_aml
 .text.device_bind
                0x000000000102991c      0x17c drivers/built-in.o
                0x000000000102991c                device_bind
 .text.device_bind_by_name
                0x0000000001029a98       0x7c drivers/built-in.o
                0x0000000001029a98                device_bind_by_name
 .text.device_probe
                0x0000000001029b14        0x8 drivers/built-in.o
                0x0000000001029b14                device_probe
 .text.device_probe_child
                0x0000000001029b1c      0x1e8 drivers/built-in.o
                0x0000000001029b1c                device_probe_child
 .text.dev_get_platdata
                0x0000000001029d04       0x40 drivers/built-in.o
                0x0000000001029d04                dev_get_platdata
 .text.lists_driver_lookup_name
                0x0000000001029d44       0x84 drivers/built-in.o
                0x0000000001029d44                lists_driver_lookup_name
 .text.lists_uclass_lookup
                0x0000000001029dc8       0x58 drivers/built-in.o
                0x0000000001029dc8                lists_uclass_lookup
 .text.lists_bind_drivers
                0x0000000001029e20       0xb4 drivers/built-in.o
                0x0000000001029e20                lists_bind_drivers
 .text.dm_init  0x0000000001029ed4       0x5c drivers/built-in.o
                0x0000000001029ed4                dm_init
 .text.dm_scan_platdata
                0x0000000001029f30       0x34 drivers/built-in.o
                0x0000000001029f30                dm_scan_platdata
 .text.dm_scan_other
                0x0000000001029f64        0x8 drivers/built-in.o
                0x0000000001029f64                dm_scan_other
 .text.dm_init_and_scan
                0x0000000001029f6c       0x40 drivers/built-in.o
                0x0000000001029f6c                dm_init_and_scan
 .text.uclass_find
                0x0000000001029fac       0x48 drivers/built-in.o
                0x0000000001029fac                uclass_find
 .text.uclass_get
                0x0000000001029ff4      0x13c drivers/built-in.o
                0x0000000001029ff4                uclass_get
 .text.uclass_find_device_by_seq
                0x000000000102a130       0x8c drivers/built-in.o
                0x000000000102a130                uclass_find_device_by_seq
 .text.uclass_first_device
                0x000000000102a1bc       0x54 drivers/built-in.o
                0x000000000102a1bc                uclass_first_device
 .text.uclass_next_device
                0x000000000102a210       0x54 drivers/built-in.o
                0x000000000102a210                uclass_next_device
 .text.uclass_bind_device
                0x000000000102a264       0x74 drivers/built-in.o
                0x000000000102a264                uclass_bind_device
 .text.uclass_unbind_device
                0x000000000102a2d8       0x54 drivers/built-in.o
                0x000000000102a2d8                uclass_unbind_device
 .text.uclass_resolve_seq
                0x000000000102a32c       0xb0 drivers/built-in.o
                0x000000000102a32c                uclass_resolve_seq
 .text.uclass_post_probe_device
                0x000000000102a3dc       0x2c drivers/built-in.o
                0x000000000102a3dc                uclass_post_probe_device
 .text.uclass_pre_remove_device
                0x000000000102a408       0x5c drivers/built-in.o
                0x000000000102a408                uclass_pre_remove_device
 .text.dm_warn  0x000000000102a464       0x88 drivers/built-in.o
                0x000000000102a464                dm_warn
 .text.device_free
                0x000000000102a4ec       0x84 drivers/built-in.o
                0x000000000102a4ec                device_free
 .text.device_remove
                0x000000000102a570      0x14c drivers/built-in.o
                0x000000000102a570                device_remove
 .text.get_vpu_clk
                0x000000000102a6bc       0xe0 drivers/built-in.o
 .text.switch_gp_pll_m8m2.part.2
                0x000000000102a79c      0x1f0 drivers/built-in.o
 .text.switch_gp1_pll_g9tv.part.3
                0x000000000102a98c      0x244 drivers/built-in.o
 .text.vpu_probe
                0x000000000102abd0     0x111c drivers/built-in.o
                0x000000000102abd0                vpu_probe
 .text.vpu_remove
                0x000000000102bcec      0x54c drivers/built-in.o
                0x000000000102bcec                vpu_remove
 .text.vpu_clk_change
                0x000000000102c238      0x4dc drivers/built-in.o
                0x000000000102c238                vpu_clk_change
 .text.vpu_clk_get
                0x000000000102c714       0x64 drivers/built-in.o
                0x000000000102c714                vpu_clk_get
 .text.vpu_info_print
                0x000000000102c778       0xb4 drivers/built-in.o
                0x000000000102c778                vpu_info_print
 .text.vcbus_test
                0x000000000102c82c      0x14c drivers/built-in.o
                0x000000000102c82c                vcbus_test
 .text.amvecm_saturation_hue_post
                0x000000000102c978      0x16c drivers/built-in.o
 .text.set_vpp_matrix
                0x000000000102cae4      0x764 drivers/built-in.o
                0x000000000102cae4                set_vpp_matrix
 .text.set_vpp_lut
                0x000000000102d248      0x478 drivers/built-in.o
                0x000000000102d248                set_vpp_lut
 .text.set_osd1_rgb2yuv.isra.0
                0x000000000102d6c0       0x88 drivers/built-in.o
 .text.vpp_pq_init
                0x000000000102d748      0x120 drivers/built-in.o
                0x000000000102d748                vpp_pq_init
 .text.vpp_init
                0x000000000102d868      0x324 drivers/built-in.o
                0x000000000102d868                vpp_init
 .text.efuse_read
                0x000000000102db8c       0x58 drivers/built-in.o
                0x000000000102db8c                efuse_read
 .text.efuse_write
                0x000000000102dbe4       0x84 drivers/built-in.o
                0x000000000102dbe4                efuse_write
 .text.efuse_read_usr
                0x000000000102dc68       0x74 drivers/built-in.o
                0x000000000102dc68                efuse_read_usr
 .text.efuse_write_usr
                0x000000000102dcdc       0xac drivers/built-in.o
                0x000000000102dcdc                efuse_write_usr
 .text.efuse_get_max
                0x000000000102dd88       0x34 drivers/built-in.o
                0x000000000102dd88                efuse_get_max
 .text._get_cfg_key_inf_byname
                0x000000000102ddbc       0xd8 drivers/built-in.o
 .text.efuse_usr_api_init_dtb
                0x000000000102de94      0x3b0 drivers/built-in.o
                0x000000000102de94                efuse_usr_api_init_dtb
 .text.efuse_usr_api_get_cfg_key_size
                0x000000000102e244       0x64 drivers/built-in.o
                0x000000000102e244                efuse_usr_api_get_cfg_key_size
 .text.efuse_usr_api_write_key
                0x000000000102e2a8       0xf4 drivers/built-in.o
                0x000000000102e2a8                efuse_usr_api_write_key
 .text.efuse_usr_api_read_key
                0x000000000102e39c      0x158 drivers/built-in.o
                0x000000000102e39c                efuse_usr_api_read_key
 .text.do_usr_efuse_api
                0x000000000102e4f4      0x490 drivers/built-in.o
 .text._get_km_ops_by_name
                0x000000000102e984       0x84 drivers/built-in.o
 .text._keyman_hex_ascii_to_buf
                0x000000000102ea08      0x1c4 drivers/built-in.o
                0x000000000102ea08                _keyman_hex_ascii_to_buf
 .text._keyman_buf_to_hex_ascii
                0x000000000102ebcc       0xcc drivers/built-in.o
                0x000000000102ebcc                _keyman_buf_to_hex_ascii
 .text.key_unify_init
                0x000000000102ec98      0x144 drivers/built-in.o
                0x000000000102ec98                key_unify_init
 .text.key_unify_uninit
                0x000000000102eddc       0x8c drivers/built-in.o
                0x000000000102eddc                key_unify_uninit
 .text.key_unify_query_key_has_configure
                0x000000000102ee68       0x1c drivers/built-in.o
                0x000000000102ee68                key_unify_query_key_has_configure
 .text.key_unify_write
                0x000000000102ee84       0xcc drivers/built-in.o
                0x000000000102ee84                key_unify_write
 .text.key_unify_read
                0x000000000102ef50      0x154 drivers/built-in.o
                0x000000000102ef50                key_unify_read
 .text.key_unify_query_size
                0x000000000102f0a4       0xb8 drivers/built-in.o
                0x000000000102f0a4                key_unify_query_size
 .text.key_unify_query_exist
                0x000000000102f15c       0x6c drivers/built-in.o
                0x000000000102f15c                key_unify_query_exist
 .text.key_unify_query_secure
                0x000000000102f1c8       0xc0 drivers/built-in.o
                0x000000000102f1c8                key_unify_query_secure
 .text.do_keyunify
                0x000000000102f288      0x3ec drivers/built-in.o
                0x000000000102f288                do_keyunify
 .text.key_unify_query_canOverWrite
                0x000000000102f674       0x68 drivers/built-in.o
                0x000000000102f674                key_unify_query_canOverWrite
 .text.generalDataChange
                0x000000000102f6dc       0x48 drivers/built-in.o
 .text.do_keyman_init
                0x000000000102f724       0x28 drivers/built-in.o
 .text.do_keyman_exit
                0x000000000102f74c        0x4 drivers/built-in.o
 .text.km_get_user_key_format
                0x000000000102f750      0x144 drivers/built-in.o
 .text.do_keymanage
                0x000000000102f894       0x74 drivers/built-in.o
 .text.key_manage_init
                0x000000000102f908        0x4 drivers/built-in.o
                0x000000000102f908                key_manage_init
 .text.key_manage_exit
                0x000000000102f90c        0x4 drivers/built-in.o
                0x000000000102f90c                key_manage_exit
 .text.key_manage_write
                0x000000000102f910      0x6a0 drivers/built-in.o
                0x000000000102f910                key_manage_write
 .text.do_keyman_write
                0x000000000102ffb0      0x1f8 drivers/built-in.o
 .text.key_manage_query_exist
                0x00000000010301a8       0x68 drivers/built-in.o
                0x00000000010301a8                key_manage_query_exist
 .text.key_manage_query_size
                0x0000000001030210      0x10c drivers/built-in.o
                0x0000000001030210                key_manage_query_size
 .text.key_manage_read
                0x000000000103031c      0x3ac drivers/built-in.o
                0x000000000103031c                key_manage_read
 .text.do_keyman_read
                0x00000000010306c8      0x190 drivers/built-in.o
 .text.key_manage_query_secure
                0x0000000001030858       0xb0 drivers/built-in.o
                0x0000000001030858                key_manage_query_secure
 .text.do_keyman_query
                0x0000000001030908      0x1ac drivers/built-in.o
 .text.key_manage_query_canOverWrite
                0x0000000001030ab4        0x4 drivers/built-in.o
                0x0000000001030ab4                key_manage_query_canOverWrite
 .text.unifykey_find_item_by_name
                0x0000000001030ab8       0x70 drivers/built-in.o
 .text.unifykey_item_verify_check
                0x0000000001030b28       0x6c drivers/built-in.o
 .text.keymanage_dts_get_key_device
                0x0000000001030b94       0xc0 drivers/built-in.o
                0x0000000001030b94                keymanage_dts_get_key_device
 .text.keymanage_dts_get_enc_type
                0x0000000001030c54       0x94 drivers/built-in.o
                0x0000000001030c54                keymanage_dts_get_enc_type
 .text.keymanage_dts_get_key_type
                0x0000000001030ce8       0x94 drivers/built-in.o
                0x0000000001030ce8                keymanage_dts_get_key_type
 .text.unifykey_get_efuse_version
                0x0000000001030d7c       0x64 drivers/built-in.o
                0x0000000001030d7c                unifykey_get_efuse_version
 .text.unifykey_get_encrypt_type
                0x0000000001030de0       0x10 drivers/built-in.o
                0x0000000001030de0                unifykey_get_encrypt_type
 .text.keymanage_dts_parse
                0x0000000001030df0      0x638 drivers/built-in.o
                0x0000000001030df0                keymanage_dts_parse
 .text.keymanage_securekey_init
                0x0000000001031428       0x30 drivers/built-in.o
                0x0000000001031428                keymanage_securekey_init
 .text.keymanage_securekey_exit
                0x0000000001031458        0x8 drivers/built-in.o
                0x0000000001031458                keymanage_securekey_exit
 .text.keymanage_secukey_write
                0x0000000001031460      0x1fc drivers/built-in.o
                0x0000000001031460                keymanage_secukey_write
 .text.keymanage_secukey_size
                0x000000000103165c        0x4 drivers/built-in.o
                0x000000000103165c                keymanage_secukey_size
 .text.keymanage_secukey_exist
                0x0000000001031660        0x4 drivers/built-in.o
                0x0000000001031660                keymanage_secukey_exist
 .text.keymanage_secukey_can_read
                0x0000000001031664       0x1c drivers/built-in.o
                0x0000000001031664                keymanage_secukey_can_read
 .text.keymanage_secukey_read
                0x0000000001031680       0xb8 drivers/built-in.o
                0x0000000001031680                keymanage_secukey_read
 .text.keymanage_efuse_init
                0x0000000001031738       0x94 drivers/built-in.o
                0x0000000001031738                keymanage_efuse_init
 .text.keymange_efuse_exit
                0x00000000010317cc        0x8 drivers/built-in.o
                0x00000000010317cc                keymange_efuse_exit
 .text.keymanage_efuse_write
                0x00000000010317d4       0x78 drivers/built-in.o
                0x00000000010317d4                keymanage_efuse_write
 .text.keymanage_efuse_size
                0x000000000103184c       0x64 drivers/built-in.o
                0x000000000103184c                keymanage_efuse_size
 .text.keymanage_efuse_query_can_read
                0x00000000010318b0       0x28 drivers/built-in.o
                0x00000000010318b0                keymanage_efuse_query_can_read
 .text.keymanage_efuse_read
                0x00000000010318d8       0x88 drivers/built-in.o
                0x00000000010318d8                keymanage_efuse_read
 .text.keymanage_efuse_exist
                0x0000000001031960      0x120 drivers/built-in.o
                0x0000000001031960                keymanage_efuse_exist
 .text.aml_check_is_ready_for_sdc_produce
                0x0000000001031a80       0x7c drivers/built-in.o
                0x0000000001031a80                aml_check_is_ready_for_sdc_produce
 .text.is_tpl_loaded_from_usb
                0x0000000001031afc       0x2c drivers/built-in.o
                0x0000000001031afc                is_tpl_loaded_from_usb
 .text.is_tpl_loaded_from_ext_sdmmc
                0x0000000001031b28       0x1c drivers/built-in.o
                0x0000000001031b28                is_tpl_loaded_from_ext_sdmmc
 .text.aml_burn_check_uboot_loaded_for_burn
                0x0000000001031b44       0x30 drivers/built-in.o
                0x0000000001031b44                aml_burn_check_uboot_loaded_for_burn
 .text.aml_burn_usb_producing
                0x0000000001031b74       0x2c drivers/built-in.o
                0x0000000001031b74                aml_burn_usb_producing
 .text.aml_burn_sdc_producing
                0x0000000001031ba0       0x24 drivers/built-in.o
                0x0000000001031ba0                aml_burn_sdc_producing
 .text.aml_try_factory_usb_burning
                0x0000000001031bc4       0x58 drivers/built-in.o
                0x0000000001031bc4                aml_try_factory_usb_burning
 .text.aml_try_factory_sdcard_burning
                0x0000000001031c1c       0x50 drivers/built-in.o
                0x0000000001031c1c                aml_try_factory_sdcard_burning
 .text.dwc_otg_enable_common_interrupts
                0x0000000001031c6c       0x38 drivers/built-in.o
 .text.ep0_out_start
                0x0000000001031ca4       0x54 drivers/built-in.o
 .text.dwc_otg_core_reset
                0x0000000001031cf8       0x80 drivers/built-in.o
 .text.dwc_otg_flush_tx_fifo
                0x0000000001031d78       0x38 drivers/built-in.o
 .text.usb_parameter_init
                0x0000000001031db0       0x84 drivers/built-in.o
                0x0000000001031db0                usb_parameter_init
 .text.do_gadget_setup
                0x0000000001031e34      0x25c drivers/built-in.o
                0x0000000001031e34                do_gadget_setup
 .text.do_vendor_request
                0x0000000001032090      0x2a4 drivers/built-in.o
                0x0000000001032090                do_vendor_request
 .text.do_modify_memory
                0x0000000001032334       0xb0 drivers/built-in.o
                0x0000000001032334                do_modify_memory
 .text.set_usb_phy_config
                0x00000000010323e4       0xcc drivers/built-in.o
                0x00000000010323e4                set_usb_phy_config
 .text.dwc_core_init
                0x00000000010324b0      0x2ec drivers/built-in.o
                0x00000000010324b0                dwc_core_init
 .text.usb_pcd_init
                0x000000000103279c       0x20 drivers/built-in.o
                0x000000000103279c                usb_pcd_init
 .text.dwc_otg_pullup
                0x00000000010327bc       0x38 drivers/built-in.o
                0x00000000010327bc                dwc_otg_pullup
 .text.close_usb_phy_clock
                0x00000000010327f4       0x44 drivers/built-in.o
                0x00000000010327f4                close_usb_phy_clock
 .text.dwc_otg_ep_start_transfer
                0x0000000001032838       0xf4 drivers/built-in.o
                0x0000000001032838                dwc_otg_ep_start_transfer
 .text.do_setup_in_status_phase.isra.2
                0x000000000103292c       0x5c drivers/built-in.o
 .text.ep0_complete_request.constprop.12
                0x0000000001032988       0xd8 drivers/built-in.o
 .text.dwc_otg_ep_req_start
                0x0000000001032a60      0x1cc drivers/built-in.o
                0x0000000001032a60                dwc_otg_ep_req_start
 .text.start_bulk_transfer
                0x0000000001032c2c       0x1c drivers/built-in.o
                0x0000000001032c2c                start_bulk_transfer
 .text.do_vendor_in_complete
                0x0000000001032c48      0x154 drivers/built-in.o
                0x0000000001032c48                do_vendor_in_complete
 .text.bulk_cmd_reply
                0x0000000001032d9c       0x80 drivers/built-in.o
 .text.dwc_otg_bulk_ep_enable
                0x0000000001032e1c       0x70 drivers/built-in.o
                0x0000000001032e1c                dwc_otg_bulk_ep_enable
 .text.bulk_transfer_reply
                0x0000000001032e8c      0x254 drivers/built-in.o
                0x0000000001032e8c                bulk_transfer_reply
 .text.do_bulk_complete
                0x00000000010330e0      0x16c drivers/built-in.o
                0x00000000010330e0                do_bulk_complete
 .text.do_vendor_out_complete
                0x000000000103324c      0x39c drivers/built-in.o
                0x000000000103324c                do_vendor_out_complete
 .text.pcd_out_completed.constprop.11
                0x00000000010335e8       0x30 drivers/built-in.o
 .text.handle_ep0.isra.7
                0x0000000001033618      0x208 drivers/built-in.o
 .text.dwc_otg_ep_write_packet
                0x0000000001033820       0xbc drivers/built-in.o
                0x0000000001033820                dwc_otg_ep_write_packet
 .text.dwc_otg_read_setup_packet
                0x00000000010338dc       0x24 drivers/built-in.o
                0x00000000010338dc                dwc_otg_read_setup_packet
 .text.dwc_otg_pcd_handle_rx_status_q_level_intr
                0x0000000001033900      0x1ec drivers/built-in.o
                0x0000000001033900                dwc_otg_pcd_handle_rx_status_q_level_intr
 .text.dwc_otg_pcd_handle_np_tx_fifo_empty_intr
                0x0000000001033aec      0x158 drivers/built-in.o
                0x0000000001033aec                dwc_otg_pcd_handle_np_tx_fifo_empty_intr
 .text.cb_4_bulk_in_reply
                0x0000000001033c44       0x4c drivers/built-in.o
 .text.platform_busy_increase_un_reported_size
                0x0000000001033c90      0x124 drivers/built-in.o
                0x0000000001033c90                platform_busy_increase_un_reported_size
 .text.dwc_otg_pcd_handle_enum_done_intr
                0x0000000001033db4       0x98 drivers/built-in.o
                0x0000000001033db4                dwc_otg_pcd_handle_enum_done_intr
 .text.dwc_otg_pcd_handle_usb_reset_intr
                0x0000000001033e4c      0x104 drivers/built-in.o
                0x0000000001033e4c                dwc_otg_pcd_handle_usb_reset_intr
 .text.dwc_common_irq
                0x0000000001033f50       0x5c drivers/built-in.o
                0x0000000001033f50                dwc_common_irq
 .text.dwc_pcd_irq
                0x0000000001033fac      0x3d8 drivers/built-in.o
                0x0000000001033fac                dwc_pcd_irq
 .text.dwc_otg_irq
                0x0000000001034384       0x28 drivers/built-in.o
                0x0000000001034384                dwc_otg_irq
 .text.usb_pcd_irq
                0x00000000010343ac      0x128 drivers/built-in.o
                0x00000000010343ac                usb_pcd_irq
 .text.v2_usbburning
                0x00000000010344d4       0x64 drivers/built-in.o
                0x00000000010344d4                v2_usbburning
 .text.do_v2_usbtool
                0x0000000001034538       0x9c drivers/built-in.o
                0x0000000001034538                do_v2_usbtool
 .text.opimus_func_write_raw_img
                0x00000000010345d4       0xd0 drivers/built-in.o
                0x00000000010345d4                opimus_func_write_raw_img
 .text.opimus_func_read_raw_img
                0x00000000010346a4      0x1cc drivers/built-in.o
                0x00000000010346a4                opimus_func_read_raw_img
 .text.optimus_simg2part
                0x0000000001034870      0x1f4 drivers/built-in.o
                0x0000000001034870                optimus_simg2part
 .text.optimus_sha1sum
                0x0000000001034a64      0x378 drivers/built-in.o
                0x0000000001034a64                optimus_sha1sum
 .text.optimus_mem_md
                0x0000000001034ddc       0xb0 drivers/built-in.o
                0x0000000001034ddc                optimus_mem_md
 .text.cb_4_dis_connect_intr
                0x0000000001034e8c       0x38 drivers/built-in.o
                0x0000000001034e8c                cb_4_dis_connect_intr
 .text.optimus_working
                0x0000000001034ec4      0x578 drivers/built-in.o
                0x0000000001034ec4                optimus_working
 .text.optimus_storage_read.constprop.11
                0x000000000103543c      0x1d0 drivers/built-in.o
 .text.optimus_storage_open.constprop.14
                0x000000000103560c      0x14c drivers/built-in.o
 .text.optimus_storage_close.constprop.13
                0x0000000001035758       0x74 drivers/built-in.o
 .text.optimus_cb_simg_write_media
                0x00000000010357cc       0xbc drivers/built-in.o
                0x00000000010357cc                optimus_cb_simg_write_media
 .text.optimus_download_init
                0x0000000001035888       0x28 drivers/built-in.o
                0x0000000001035888                optimus_download_init
 .text.optimus_parse_img_download_info
                0x00000000010358b0      0x474 drivers/built-in.o
                0x00000000010358b0                optimus_parse_img_download_info
 .text.is_optimus_storage_inited
                0x0000000001035d24       0x10 drivers/built-in.o
                0x0000000001035d24                is_optimus_storage_inited
 .text.optimus_storage_init
                0x0000000001035d34      0x2ac drivers/built-in.o
                0x0000000001035d34                optimus_storage_init
 .text.optimus_storage_exit
                0x0000000001035fe0       0x28 drivers/built-in.o
                0x0000000001035fe0                optimus_storage_exit
 .text.is_optimus_burn_complete
                0x0000000001036008       0x48 drivers/built-in.o
                0x0000000001036008                is_optimus_burn_complete
 .text.optimus_download_img_data
                0x0000000001036050      0x4c8 drivers/built-in.o
                0x0000000001036050                optimus_download_img_data
 .text.optimus_media_download_verify
                0x0000000001036518      0x554 drivers/built-in.o
                0x0000000001036518                optimus_media_download_verify
 .text.optimus_parse_download_cmd
                0x0000000001036a6c      0x1d8 drivers/built-in.o
                0x0000000001036a6c                optimus_parse_download_cmd
 .text.optimus_dump_storage_data
                0x0000000001036c44      0x124 drivers/built-in.o
                0x0000000001036c44                optimus_dump_storage_data
 .text.optimus_work_mode_get
                0x0000000001036d68       0x10 drivers/built-in.o
                0x0000000001036d68                optimus_work_mode_get
 .text.optimus_work_mode_set
                0x0000000001036d78       0x14 drivers/built-in.o
                0x0000000001036d78                optimus_work_mode_set
 .text.optimus_set_burn_complete_flag
                0x0000000001036d8c       0xe4 drivers/built-in.o
                0x0000000001036d8c                optimus_set_burn_complete_flag
 .text.optimus_reset
                0x0000000001036e70       0x6c drivers/built-in.o
                0x0000000001036e70                optimus_reset
 .text.optimus_poweroff
                0x0000000001036edc       0x34 drivers/built-in.o
                0x0000000001036edc                optimus_poweroff
 .text.optimus_burn_complete
                0x0000000001036f10       0xf4 drivers/built-in.o
                0x0000000001036f10                optimus_burn_complete
 .text.optimus_erase_bootloader
                0x0000000001037004       0xa0 drivers/built-in.o
                0x0000000001037004                optimus_erase_bootloader
 .text.optimus_buf_manager_init
                0x00000000010370a4       0x5c drivers/built-in.o
                0x00000000010370a4                optimus_buf_manager_init
 .text.optimus_buf_manager_tplcmd_init
                0x0000000001037100      0x284 drivers/built-in.o
                0x0000000001037100                optimus_buf_manager_tplcmd_init
 .text.optimus_buf_manager_get_buf_for_bulk_transfer
                0x0000000001037384      0x124 drivers/built-in.o
                0x0000000001037384                optimus_buf_manager_get_buf_for_bulk_transfer
 .text.optimus_buf_manager_report_transfer_complete
                0x00000000010374a8      0x268 drivers/built-in.o
                0x00000000010374a8                optimus_buf_manager_report_transfer_complete
 .text.optimus_buf_manager_get_command_data_for_upload_transfer
                0x0000000001037710       0x90 drivers/built-in.o
                0x0000000001037710                optimus_buf_manager_get_command_data_for_upload_transfer
 .text.optimus_simg_probe
                0x00000000010377a0       0xd0 drivers/built-in.o
                0x00000000010377a0                optimus_simg_probe
 .text.optimus_simg_parser_init
                0x0000000001037870       0x70 drivers/built-in.o
                0x0000000001037870                optimus_simg_parser_init
 .text.optimus_simg_to_media
                0x00000000010378e0      0x4d8 drivers/built-in.o
                0x00000000010378e0                optimus_simg_to_media
 .text.optimus_sparse_back_info_probe
                0x0000000001037db8       0x68 drivers/built-in.o
                0x0000000001037db8                optimus_sparse_back_info_probe
 .text.optimus_sparse_get_chunk_data
                0x0000000001037e20      0x1c0 drivers/built-in.o
                0x0000000001037e20                optimus_sparse_get_chunk_data
 .text.optimus_progress_init
                0x0000000001037fe0       0x60 drivers/built-in.o
                0x0000000001037fe0                optimus_progress_init
 .text.optimus_update_progress
                0x0000000001038040       0xb4 drivers/built-in.o
                0x0000000001038040                optimus_update_progress
 .text.optimus_hex_data_2_ascii_str
                0x00000000010380f4       0xc8 drivers/built-in.o
                0x00000000010380f4                optimus_hex_data_2_ascii_str
 .text.add_sum  0x00000000010381bc       0xb0 drivers/built-in.o
                0x00000000010381bc                add_sum
 .text.image_item_get_item_info_byid
                0x000000000103826c       0xf0 drivers/built-in.o
 .text.image_open
                0x000000000103835c      0x22c drivers/built-in.o
                0x000000000103835c                image_open
 .text.image_close
                0x0000000001038588       0x44 drivers/built-in.o
                0x0000000001038588                image_close
 .text.image_item_open
                0x00000000010385cc      0x168 drivers/built-in.o
                0x00000000010385cc                image_item_open
 .text.image_item_get_first_cluster_size
                0x0000000001038734       0x40 drivers/built-in.o
                0x0000000001038734                image_item_get_first_cluster_size
 .text.image_get_cluster_size
                0x0000000001038774        0x8 drivers/built-in.o
                0x0000000001038774                image_get_cluster_size
 .text.image_item_close
                0x000000000103877c        0x8 drivers/built-in.o
                0x000000000103877c                image_item_close
 .text.image_item_get_size
                0x0000000001038784        0x8 drivers/built-in.o
                0x0000000001038784                image_item_get_size
 .text.image_item_get_type
                0x000000000103878c        0x8 drivers/built-in.o
                0x000000000103878c                image_item_get_type
 .text.image_item_read
                0x0000000001038794      0x224 drivers/built-in.o
                0x0000000001038794                image_item_read
 .text.get_total_itemnr
                0x00000000010389b8        0x8 drivers/built-in.o
                0x00000000010389b8                get_total_itemnr
 .text.get_item_name
                0x00000000010389c0       0xbc drivers/built-in.o
                0x00000000010389c0                get_item_name
 .text.image_get_item_size_by_index
                0x0000000001038a7c       0x9c drivers/built-in.o
                0x0000000001038a7c                image_get_item_size_by_index
 .text.optimus_img_decoder_get_data_parts_size
                0x0000000001038b18      0x120 drivers/built-in.o
                0x0000000001038b18                optimus_img_decoder_get_data_parts_size
 .text.downcase
                0x0000000001038c38       0x2c drivers/built-in.o
 .text.disk_read
                0x0000000001038c64       0x54 drivers/built-in.o
 .text.dirdelim
                0x0000000001038cb8       0x34 drivers/built-in.o
 .text.put_fd   0x0000000001038cec       0x14 drivers/built-in.o
 .text.get_name
                0x0000000001038d00       0xd4 drivers/built-in.o
 .text.v2_ext_mmc_read
                0x0000000001038dd4       0x48 drivers/built-in.o
 .text.get_cluster
                0x0000000001038e1c       0xcc drivers/built-in.o
 .text.get_fatent
                0x0000000001038ee8      0x18c drivers/built-in.o
 .text.slot2str
                0x0000000001039074       0xac drivers/built-in.o
 .text.get_vfatname
                0x0000000001039120      0x204 drivers/built-in.o
 .text.optimus_fat_get_fat_next_entry.part.2
                0x0000000001039324       0xac drivers/built-in.o
 .text.optimus_fat_register_device
                0x00000000010393d0      0x1b0 drivers/built-in.o
                0x00000000010393d0                optimus_fat_register_device
 .text.do_fat_fseek
                0x0000000001039580      0x278 drivers/built-in.o
                0x0000000001039580                do_fat_fseek
 .text.do_fat_fopen
                0x00000000010397f8      0x80c drivers/built-in.o
                0x00000000010397f8                do_fat_fopen
 .text.do_fat_get_bytesperclust
                0x000000000103a004       0x60 drivers/built-in.o
                0x000000000103a004                do_fat_get_bytesperclust
 .text.do_fat_fread
                0x000000000103a064      0x424 drivers/built-in.o
                0x000000000103a064                do_fat_fread
 .text.do_fat_fclose
                0x000000000103a488       0x98 drivers/built-in.o
                0x000000000103a488                do_fat_fclose
 .text.do_fat_get_fileSz
                0x000000000103a520       0xbc drivers/built-in.o
                0x000000000103a520                do_fat_get_fileSz
 .text.do_fat_get_file_format
                0x000000000103a5dc       0xa8 drivers/built-in.o
                0x000000000103a5dc                do_fat_get_file_format
 .text.optimus_device_probe
                0x000000000103a684       0xc8 drivers/built-in.o
                0x000000000103a684                optimus_device_probe
 .text.opt_file_read
                0x000000000103a74c       0x68 drivers/built-in.o
                0x000000000103a74c                opt_file_read
 .text.storage_get_partition_size_in_byte
                0x000000000103a7b4       0x84 drivers/built-in.o
                0x000000000103a7b4                storage_get_partition_size_in_byte
 .text.sdc_burn_buf_manager_init
                0x000000000103a838      0x148 drivers/built-in.o
                0x000000000103a838                sdc_burn_buf_manager_init
 .text.sdc_burn_verify
                0x000000000103a980      0x18c drivers/built-in.o
                0x000000000103a980                sdc_burn_verify
 .text.optimus_burn_partition_image
                0x000000000103ab0c      0x278 drivers/built-in.o
                0x000000000103ab0c                optimus_burn_partition_image
 .text.do_sdc_update
                0x000000000103ad84      0x1cc drivers/built-in.o
                0x000000000103ad84                do_sdc_update
 .text.get_burn_parts_from_img
                0x000000000103af50      0x17c drivers/built-in.o
                0x000000000103af50                get_burn_parts_from_img
 .text.optimus_verify_partition
                0x000000000103b0cc      0x1d4 drivers/built-in.o
                0x000000000103b0cc                optimus_verify_partition
 .text.optimus_burn_one_partition
                0x000000000103b2a0      0x3d0 drivers/built-in.o
 .text.optimus_sdc_burn_partitions
                0x000000000103b670      0x124 drivers/built-in.o
                0x000000000103b670                optimus_sdc_burn_partitions
 .text.optimus_sdc_burn_media_partition
                0x000000000103b794       0x24 drivers/built-in.o
                0x000000000103b794                optimus_sdc_burn_media_partition
 .text.optimus_burn_bootlader
                0x000000000103b7b8       0x5c drivers/built-in.o
                0x000000000103b7b8                optimus_burn_bootlader
 .text.optimus_report_burn_complete_sta
                0x000000000103b814       0x64 drivers/built-in.o
                0x000000000103b814                optimus_report_burn_complete_sta
 .text.optimus_sdc_burn_dtb_load
                0x000000000103b878      0x210 drivers/built-in.o
                0x000000000103b878                optimus_sdc_burn_dtb_load
 .text.optimus_burn_with_cfg_file
                0x000000000103ba88      0x46c drivers/built-in.o
                0x000000000103ba88                optimus_burn_with_cfg_file
 .text.optimus_burn_package_in_sdmmc
                0x000000000103bef4       0x80 drivers/built-in.o
                0x000000000103bef4                optimus_burn_package_in_sdmmc
 .text.do_sdc_burn
                0x000000000103bf74       0x64 drivers/built-in.o
                0x000000000103bf74                do_sdc_burn
 .text._optimus_parse_buf_2_lines
                0x000000000103bfd8      0x13c drivers/built-in.o
                0x000000000103bfd8                _optimus_parse_buf_2_lines
 .text._optimus_abandon_ini_comment_lines
                0x000000000103c114       0x60 drivers/built-in.o
                0x000000000103c114                _optimus_abandon_ini_comment_lines
 .text.parse_ini_file_2_valid_lines
                0x000000000103c174      0x1b4 drivers/built-in.o
                0x000000000103c174                parse_ini_file_2_valid_lines
 .text.optimus_ini_trans_lines_2_usr_params
                0x000000000103c328      0x518 drivers/built-in.o
                0x000000000103c328                optimus_ini_trans_lines_2_usr_params
 .text.optimus_aml_sdc_ini_check_set_valid
                0x000000000103c840       0x5c drivers/built-in.o
 .text.optimus_aml_sdc_burn_ini_parse_usr_cfg
                0x000000000103c89c      0x5dc drivers/built-in.o
 .text.print_burn_parts_para
                0x000000000103ce78       0x90 drivers/built-in.o
                0x000000000103ce78                print_burn_parts_para
 .text.check_cfg_burn_parts
                0x000000000103cf08       0xe8 drivers/built-in.o
                0x000000000103cf08                check_cfg_burn_parts
 .text.parse_ini_cfg_file
                0x000000000103cff0      0x214 drivers/built-in.o
                0x000000000103cff0                parse_ini_cfg_file
 .text.optimus_burn_package_in_usb
                0x000000000103d204       0xf8 drivers/built-in.o
                0x000000000103d204                optimus_burn_package_in_usb
 .text.do_usb_burn
                0x000000000103d2fc       0x6c drivers/built-in.o
                0x000000000103d2fc                do_usb_burn
 .text.do_usb_update
                0x000000000103d368      0x1c4 drivers/built-in.o
                0x000000000103d368                do_usb_update
 .text.v2_key_burn
                0x000000000103d52c      0x240 drivers/built-in.o
                0x000000000103d52c                v2_key_burn
 .text.v2_key_read
                0x000000000103d76c       0x9c drivers/built-in.o
                0x000000000103d76c                v2_key_read
 .text.v2_key_command
                0x000000000103d808      0x6b0 drivers/built-in.o
                0x000000000103d808                v2_key_command
 .text.optimus_prepare_upgrading_bmps
                0x000000000103deb8      0x250 drivers/built-in.o
 .text._show_burn_logo
                0x000000000103e108       0xfc drivers/built-in.o
 .text.show_logo_report_burn_ui_error
                0x000000000103e204       0x50 drivers/built-in.o
 .text.video_res_prepare_for_upgrade
                0x000000000103e254       0x70 drivers/built-in.o
                0x000000000103e254                video_res_prepare_for_upgrade
 .text.show_logo_to_report_burning
                0x000000000103e2c4        0xc drivers/built-in.o
                0x000000000103e2c4                show_logo_to_report_burning
 .text.optimus_progress_ui_request
                0x000000000103e2d0      0x18c drivers/built-in.o
                0x000000000103e2d0                optimus_progress_ui_request
 .text.optimus_progress_ui_set_smart_mode
                0x000000000103e45c       0x7c drivers/built-in.o
                0x000000000103e45c                optimus_progress_ui_set_smart_mode
 .text.optimus_progress_ui_set_unfocus_bkg
                0x000000000103e4d8      0x14c drivers/built-in.o
                0x000000000103e4d8                optimus_progress_ui_set_unfocus_bkg
 .text.optimus_progress_ui_direct_update_progress
                0x000000000103e624      0x150 drivers/built-in.o
                0x000000000103e624                optimus_progress_ui_direct_update_progress
 .text.optimus_progress_ui_update_by_bytes
                0x000000000103e774       0x54 drivers/built-in.o
                0x000000000103e774                optimus_progress_ui_update_by_bytes
 .text.optimus_progress_ui_release
                0x000000000103e7c8       0x38 drivers/built-in.o
                0x000000000103e7c8                optimus_progress_ui_release
 .text.optimus_progress_ui_request_for_sdc_burn
                0x000000000103e800      0x284 drivers/built-in.o
                0x000000000103e800                optimus_progress_ui_request_for_sdc_burn
 .text.optimus_progress_ui_report_upgrade_stat
                0x000000000103ea84       0x38 drivers/built-in.o
                0x000000000103ea84                optimus_progress_ui_report_upgrade_stat
 .text.optimus_progress_ui_printf
                0x000000000103eabc       0xc0 drivers/built-in.o
                0x000000000103eabc                optimus_progress_ui_printf
 .text.do_aml_sysrecovery
                0x000000000103eb7c      0x3f8 drivers/built-in.o
 .text.canvas_init
                0x000000000103ef74       0x8c drivers/built-in.o
                0x000000000103ef74                canvas_init
 .text.canvas_config
                0x000000000103f000      0x100 drivers/built-in.o
                0x000000000103f000                canvas_config
 .text.osd_super_scale_enable
                0x000000000103f100       0xdc drivers/built-in.o
 .text.osd1_update_coef
                0x000000000103f1dc      0x130 drivers/built-in.o
 .text.osd2_update_coef
                0x000000000103f30c      0x140 drivers/built-in.o
 .text.osd1_update_enable
                0x000000000103f44c      0x158 drivers/built-in.o
 .text.osd2_update_enable
                0x000000000103f5a4      0x188 drivers/built-in.o
 .text.osd1_update_disp_osd_reverse
                0x000000000103f72c       0x54 drivers/built-in.o
 .text.osd2_update_disp_osd_reverse
                0x000000000103f780       0x54 drivers/built-in.o
 .text.osd1_update_disp_osd_rotate
                0x000000000103f7d4       0x18 drivers/built-in.o
 .text.osd2_update_disp_osd_rotate
                0x000000000103f7ec       0x18 drivers/built-in.o
 .text.osd1_update_color_key
                0x000000000103f804       0x28 drivers/built-in.o
 .text.osd2_update_color_key
                0x000000000103f82c       0x28 drivers/built-in.o
 .text.osd1_update_color_key_enable
                0x000000000103f854       0x3c drivers/built-in.o
 .text.osd2_update_color_key_enable
                0x000000000103f890       0x3c drivers/built-in.o
 .text.osd1_update_gbl_alpha
                0x000000000103f8cc       0x3c drivers/built-in.o
 .text.osd2_update_gbl_alpha
                0x000000000103f908       0x3c drivers/built-in.o
 .text.osd2_update_order
                0x000000000103f944       0x60 drivers/built-in.o
 .text.osd1_update_order
                0x000000000103f9a4       0x60 drivers/built-in.o
 .text.osd2_update_disp_geometry
                0x000000000103fa04      0x16c drivers/built-in.o
 .text.osd2_update_disp_freescale_enable
                0x000000000103fb70      0x2a8 drivers/built-in.o
 .text.osd2_update_color_mode
                0x000000000103fe18       0xcc drivers/built-in.o
 .text.osd1_update_disp_geometry
                0x000000000103fee4      0x3d0 drivers/built-in.o
 .text.osd1_update_color_mode
                0x00000000010402b4       0xcc drivers/built-in.o
 .text.osd1_update_disp_scale_enable
                0x0000000001040380       0x88 drivers/built-in.o
 .text.osd2_update_disp_scale_enable
                0x0000000001040408       0x88 drivers/built-in.o
 .text.osd1_update_disp_freescale_enable
                0x0000000001040490      0x2ec drivers/built-in.o
 .text.osd_set_log_level
                0x000000000104077c       0x10 drivers/built-in.o
                0x000000000104077c                osd_set_log_level
 .text.osd_get_hw_para
                0x000000000104078c       0x10 drivers/built-in.o
                0x000000000104078c                osd_get_hw_para
 .text.osd_wait_vsync_hw
                0x000000000104079c      0x23c drivers/built-in.o
                0x000000000104079c                osd_wait_vsync_hw
 .text.osd_set_scan_mode
                0x00000000010409d8      0x160 drivers/built-in.o
                0x00000000010409d8                osd_set_scan_mode
 .text.osd_setup_hw
                0x0000000001040b38      0x454 drivers/built-in.o
                0x0000000001040b38                osd_setup_hw
 .text.osd_set_free_scale_enable_hw
                0x0000000001040f8c      0x228 drivers/built-in.o
                0x0000000001040f8c                osd_set_free_scale_enable_hw
 .text.osd_set_free_scale_mode_hw
                0x00000000010411b4       0x14 drivers/built-in.o
                0x00000000010411b4                osd_set_free_scale_mode_hw
 .text.osd_set_free_scale_axis_hw
                0x00000000010411c8       0x2c drivers/built-in.o
                0x00000000010411c8                osd_set_free_scale_axis_hw
 .text.osd_set_window_axis_hw
                0x00000000010411f4       0xb4 drivers/built-in.o
                0x00000000010411f4                osd_set_window_axis_hw
 .text.osd_enable_hw
                0x00000000010412a8       0x68 drivers/built-in.o
                0x00000000010412a8                osd_enable_hw
 .text.osd_init_hw
                0x0000000001041310      0x358 drivers/built-in.o
                0x0000000001041310                osd_init_hw
 .text.env_strtoul
                0x0000000001041668       0x90 drivers/built-in.o
 .text.osd_layer_init.isra.0
                0x00000000010416f8       0xa0 drivers/built-in.o
 .text.get_fb_addr
                0x0000000001041798       0xec drivers/built-in.o
                0x0000000001041798                get_fb_addr
 .text.video_hw_init
                0x0000000001041884      0x1f4 drivers/built-in.o
                0x0000000001041884                video_hw_init
 .text.rle8_decode
                0x0000000001041a78      0x15c drivers/built-in.o
                0x0000000001041a78                rle8_decode
 .text.video_display_bitmap
                0x0000000001041bd4      0x5d0 drivers/built-in.o
                0x0000000001041bd4                video_display_bitmap
 .text.video_scale_bitmap
                0x00000000010421a4      0x118 drivers/built-in.o
                0x00000000010421a4                video_scale_bitmap
 .text.osd_debug
                0x00000000010422bc      0x480 drivers/built-in.o
                0x00000000010422bc                osd_debug
 .text.osd_test
                0x000000000104273c      0x158 drivers/built-in.o
                0x000000000104273c                osd_test
 .text.getenv_int
                0x0000000001042894       0xc0 drivers/built-in.o
 .text.vout_get_current_vmode
                0x0000000001042954       0x10 drivers/built-in.o
                0x0000000001042954                vout_get_current_vmode
 .text.vout_get_current_vinfo
                0x0000000001042964        0xc drivers/built-in.o
                0x0000000001042964                vout_get_current_vinfo
 .text.vout_get_current_axis
                0x0000000001042970      0x454 drivers/built-in.o
                0x0000000001042970                vout_get_current_axis
 .text.vout_init
                0x0000000001042dc4      0x228 drivers/built-in.o
                0x0000000001042dc4                vout_init
 .text.cvbs_write_vcbus_array
                0x0000000001042fec       0x34 drivers/built-in.o
 .text.cvbs_performance_enhancement
                0x0000000001043020      0x160 drivers/built-in.o
 .text.cvbs_set_vdac.part.0
                0x0000000001043180       0x98 drivers/built-in.o
 .text.cvbs_config_clock
                0x0000000001043218      0x3b4 drivers/built-in.o
 .text.cvbs_set_bist
                0x00000000010435cc      0x158 drivers/built-in.o
                0x00000000010435cc                cvbs_set_bist
 .text.cvbs_set_vdac
                0x0000000001043724       0xb8 drivers/built-in.o
                0x0000000001043724                cvbs_set_vdac
 .text.cvbs_reg_debug
                0x00000000010437dc      0x470 drivers/built-in.o
                0x00000000010437dc                cvbs_reg_debug
 .text.cvbs_performance_config
                0x0000000001043c4c       0x34 drivers/built-in.o
                0x0000000001043c4c                cvbs_performance_config
 .text.cvbs_set_vmode
                0x0000000001043c80      0x1a0 drivers/built-in.o
                0x0000000001043c80                cvbs_set_vmode
 .text.cvbs_show_valid_vmode
                0x0000000001043e20        0xc drivers/built-in.o
                0x0000000001043e20                cvbs_show_valid_vmode
 .text.cvbs_init
                0x0000000001043e2c       0x20 drivers/built-in.o
                0x0000000001043e2c                cvbs_init
 .text.bl31_storage_ops
                0x0000000001043e4c        0x8 drivers/built-in.o
 .text.bl31_storage_ops2
                0x0000000001043e54        0x8 drivers/built-in.o
                0x0000000001043e54                bl31_storage_ops2
 .text.bl31_storage_ops3
                0x0000000001043e5c        0x8 drivers/built-in.o
                0x0000000001043e5c                bl31_storage_ops3
 .text.secure_storage_init
                0x0000000001043e64       0x80 drivers/built-in.o
                0x0000000001043e64                secure_storage_init
 .text.secure_storage_getbuffer
                0x0000000001043ee4       0x64 drivers/built-in.o
                0x0000000001043ee4                secure_storage_getbuffer
 .text.secure_storage_notifier_ex
                0x0000000001043f48       0x14 drivers/built-in.o
                0x0000000001043f48                secure_storage_notifier_ex
 .text.secure_storage_write
                0x0000000001043f5c       0xa0 drivers/built-in.o
                0x0000000001043f5c                secure_storage_write
 .text.secure_storage_read
                0x0000000001043ffc       0xb8 drivers/built-in.o
                0x0000000001043ffc                secure_storage_read
 .text.secure_storage_query
                0x00000000010440b4       0x8c drivers/built-in.o
                0x00000000010440b4                secure_storage_query
 .text.secure_storage_status
                0x0000000001044140       0x8c drivers/built-in.o
                0x0000000001044140                secure_storage_status
 .text.secure_storage_tell
                0x00000000010441cc       0x8c drivers/built-in.o
                0x00000000010441cc                secure_storage_tell
 .text.secure_storage_verify
                0x0000000001044258       0x9c drivers/built-in.o
                0x0000000001044258                secure_storage_verify
 .text.secure_storage_set_info
                0x00000000010442f4       0x14 drivers/built-in.o
                0x00000000010442f4                secure_storage_set_info
 .text.secure_storage_set_enctype
                0x0000000001044308       0x20 drivers/built-in.o
                0x0000000001044308                secure_storage_set_enctype
 .text.amlkey_get_attr
                0x0000000001044328       0x70 drivers/built-in.o
 .text.amlkey_init
                0x0000000001044398      0x110 drivers/built-in.o
                0x0000000001044398                amlkey_init
 .text.amlkey_isexsit
                0x00000000010444a8       0x70 drivers/built-in.o
                0x00000000010444a8                amlkey_isexsit
 .text.amlkey_issecure
                0x0000000001044518       0x18 drivers/built-in.o
                0x0000000001044518                amlkey_issecure
 .text.amlkey_size
                0x0000000001044530       0x70 drivers/built-in.o
                0x0000000001044530                amlkey_size
 .text.amlkey_read
                0x00000000010445a0       0x6c drivers/built-in.o
                0x00000000010445a0                amlkey_read
 .text.amlkey_write
                0x000000000104460c       0xb8 drivers/built-in.o
                0x000000000104460c                amlkey_write
 .text.amlkey_hash_4_secure
                0x00000000010446c4        0x4 drivers/built-in.o
                0x00000000010446c4                amlkey_hash_4_secure
 .text.saradc_clock_switch
                0x00000000010446c8       0x8c drivers/built-in.o
                0x00000000010446c8                saradc_clock_switch
 .text.saradc_clock_set
                0x0000000001044754       0x7c drivers/built-in.o
                0x0000000001044754                saradc_clock_set
 .text.saradc_hw_init
                0x00000000010447d0      0x130 drivers/built-in.o
                0x00000000010447d0                saradc_hw_init
 .text.saradc_probe
                0x0000000001044900       0xd8 drivers/built-in.o
                0x0000000001044900                saradc_probe
 .text.get_adc_sample_gxbb_early
                0x00000000010449d8      0x28c drivers/built-in.o
                0x00000000010449d8                get_adc_sample_gxbb_early
 .text.get_adc_sample_gxbb
                0x0000000001044c64        0x8 drivers/built-in.o
                0x0000000001044c64                get_adc_sample_gxbb
 .text.get_adc_sample_gxbb_12bit
                0x0000000001044c6c        0x8 drivers/built-in.o
                0x0000000001044c6c                get_adc_sample_gxbb_12bit
 .text.saradc_enable
                0x0000000001044c74      0x140 drivers/built-in.o
                0x0000000001044c74                saradc_enable
 .text.saradc_disable
                0x0000000001044db4       0x1c drivers/built-in.o
                0x0000000001044db4                saradc_disable
 .text.get_nec_data
                0x0000000001044dd0       0x7c drivers/built-in.o
 .text.send_bit
                0x0000000001044e4c       0x9c drivers/built-in.o
 .text.close    0x0000000001044ee8        0x8 drivers/built-in.o
 .text.getprocotol
                0x0000000001044ef0       0x28 drivers/built-in.o
 .text.getfrequency
                0x0000000001044f18       0x10 drivers/built-in.o
 .text.read_reg
                0x0000000001044f28       0x68 drivers/built-in.o
                0x0000000001044f28                read_reg
 .text.write_reg
                0x0000000001044f90       0x30 drivers/built-in.o
                0x0000000001044f90                write_reg
 .text.print_windows
                0x0000000001044fc0       0x84 drivers/built-in.o
 .text.setfrequency
                0x0000000001045044       0x48 drivers/built-in.o
 .text.setprotocol
                0x000000000104508c       0x3c drivers/built-in.o
 .text.send_frame
                0x00000000010450c8      0x1ec drivers/built-in.o
 .text.send     0x00000000010452b4       0x1c drivers/built-in.o
 .text.loop_test
                0x00000000010452d0       0xc0 drivers/built-in.o
 .text.open     0x0000000001045390       0x3c drivers/built-in.o
 .text.aml_irblaster_get_driver
                0x00000000010453cc        0xc drivers/built-in.o
                0x00000000010453cc                aml_irblaster_get_driver
 .text.gpio_to_device
                0x00000000010453d8       0x8c drivers/gpio/built-in.o
 .text.check_reserved
                0x0000000001045464       0x50 drivers/gpio/built-in.o
 .text.gpio_renumber
                0x00000000010454b4       0x74 drivers/gpio/built-in.o
 .text.gpio_pre_remove
                0x0000000001045528       0x58 drivers/gpio/built-in.o
 .text.gpio_post_probe
                0x0000000001045580       0x44 drivers/gpio/built-in.o
 .text.gpio_lookup_name
                0x00000000010455c4      0x150 drivers/gpio/built-in.o
                0x00000000010455c4                gpio_lookup_name
 .text.gpio_request
                0x0000000001045714       0xb4 drivers/gpio/built-in.o
                0x0000000001045714                gpio_request
 .text.gpio_free
                0x00000000010457c8       0x84 drivers/gpio/built-in.o
                0x00000000010457c8                gpio_free
 .text.gpio_direction_input
                0x000000000104584c       0x50 drivers/gpio/built-in.o
                0x000000000104584c                gpio_direction_input
 .text.gpio_direction_output
                0x000000000104589c       0x60 drivers/gpio/built-in.o
                0x000000000104589c                gpio_direction_output
 .text.gpio_get_value
                0x00000000010458fc       0x50 drivers/gpio/built-in.o
                0x00000000010458fc                gpio_get_value
 .text.gpio_get_bank_info
                0x000000000104594c       0x14 drivers/gpio/built-in.o
                0x000000000104594c                gpio_get_bank_info
 .text.get_function
                0x0000000001045960       0x90 drivers/gpio/built-in.o
                0x0000000001045960                get_function
 .text.gpio_get_function
                0x00000000010459f0        0xc drivers/gpio/built-in.o
                0x00000000010459f0                gpio_get_function
 .text.gpio_get_raw_function
                0x00000000010459fc        0xc drivers/gpio/built-in.o
                0x00000000010459fc                gpio_get_raw_function
 .text.gpio_get_status
                0x0000000001045a08      0x114 drivers/gpio/built-in.o
                0x0000000001045a08                gpio_get_status
 .text.aml_gpio_get_function
                0x0000000001045b1c       0x38 drivers/gpio/built-in.o
 .text.aml_gpio_set_value
                0x0000000001045b54       0x58 drivers/gpio/built-in.o
 .text.aml_gpio_get_value
                0x0000000001045bac       0x3c drivers/gpio/built-in.o
 .text.aml_gpio_direction_output
                0x0000000001045be8       0x78 drivers/gpio/built-in.o
 .text.aml_gpio_direction_input
                0x0000000001045c60       0x40 drivers/gpio/built-in.o
 .text.aml_gpio_probe
                0x0000000001045ca0       0x48 drivers/gpio/built-in.o
 .text.aml_gpio_request
                0x0000000001045ce8       0x2c drivers/gpio/built-in.o
 .text.aml_i2c_set_token_list
                0x0000000001045d14       0x80 drivers/i2c/built-in.o
 .text.aml_i2c_do_address
                0x0000000001045d94       0x7c drivers/i2c/built-in.o
 .text.aml_i2c_clear_token_list
                0x0000000001045e10       0x68 drivers/i2c/built-in.o
 .text.aml_i2c_start_token_xfer
                0x0000000001045e78       0x70 drivers/i2c/built-in.o
 .text.aml_i2c_set_clk
                0x0000000001045ee8      0x108 drivers/i2c/built-in.o
 .text.aml_i2c_xfer_prepare
                0x0000000001045ff0       0xb8 drivers/i2c/built-in.o
 .text.aml_i2c_wait_ack
                0x00000000010460a8       0xd8 drivers/i2c/built-in.o
 .text.aml_i2c_dbg
                0x0000000001046180      0x228 drivers/i2c/built-in.o
 .text.aml_i2c_write
                0x00000000010463a8      0x1dc drivers/i2c/built-in.o
 .text.aml_i2c_read
                0x0000000001046584      0x238 drivers/i2c/built-in.o
 .text.aml_i2c_stop
                0x00000000010467bc       0xc0 drivers/i2c/built-in.o
 .text.aml_i2c_xfer
                0x000000000104687c      0x208 drivers/i2c/built-in.o
                0x000000000104687c                aml_i2c_xfer
 .text.aml_i2c_init
                0x0000000001046a84      0x260 drivers/i2c/built-in.o
                0x0000000001046a84                aml_i2c_init
 .text.i2c_read
                0x0000000001046ce4       0xe0 drivers/i2c/built-in.o
                0x0000000001046ce4                i2c_read
 .text.i2c_write
                0x0000000001046dc4      0x144 drivers/i2c/built-in.o
                0x0000000001046dc4                i2c_write
 .text.i2c_probe
                0x0000000001046f08       0x84 drivers/i2c/built-in.o
                0x0000000001046f08                i2c_probe
 .text.i2c_init
                0x0000000001046f8c       0x14 drivers/i2c/built-in.o
                0x0000000001046f8c                i2c_init
 .text.i2c_get_bus_speed
                0x0000000001046fa0        0xc drivers/i2c/built-in.o
                0x0000000001046fa0                i2c_get_bus_speed
 .text.i2c_set_bus_speed
                0x0000000001046fac       0x80 drivers/i2c/built-in.o
                0x0000000001046fac                i2c_set_bus_speed
 .text.mmc_set_ios
                0x000000000104702c       0x24 drivers/mmc/built-in.o
 .text.mmc_set_capacity
                0x0000000001047050       0x9c drivers/mmc/built-in.o
 .text.emmckey_is_access_range_legal
                0x00000000010470ec       0xb0 drivers/mmc/built-in.o
                0x00000000010470ec                emmckey_is_access_range_legal
 .text.board_mmc_getwp
                0x000000000104719c        0x8 drivers/mmc/built-in.o
                0x000000000104719c                board_mmc_getwp
 .text.mmc_getwp
                0x00000000010471a4       0x44 drivers/mmc/built-in.o
                0x00000000010471a4                mmc_getwp
 .text.board_mmc_getcd
                0x00000000010471e8        0x8 drivers/mmc/built-in.o
                0x00000000010471e8                board_mmc_getcd
 .text.mmc_send_cmd
                0x00000000010471f0       0x20 drivers/mmc/built-in.o
                0x00000000010471f0                mmc_send_cmd
 .text.mmc_send_ext_csd
                0x0000000001047210       0x48 drivers/mmc/built-in.o
 .text.mmc_go_idle
                0x0000000001047258       0x54 drivers/mmc/built-in.o
 .text.mmc_send_status
                0x00000000010472ac       0xdc drivers/mmc/built-in.o
                0x00000000010472ac                mmc_send_status
 .text.mmc_switch.isra.1
                0x0000000001047388       0x5c drivers/mmc/built-in.o
 .text.mmc_set_blocklen
                0x00000000010473e4       0x44 drivers/mmc/built-in.o
                0x00000000010473e4                mmc_set_blocklen
 .text.find_mmc_device
                0x0000000001047428       0x54 drivers/mmc/built-in.o
                0x0000000001047428                find_mmc_device
 .text.mmc_bread
                0x000000000104747c      0x1ec drivers/mmc/built-in.o
 .text.mmc_set_ext_csd
                0x0000000001047668       0x3c drivers/mmc/built-in.o
                0x0000000001047668                mmc_set_ext_csd
 .text.mmc_get_ext_csd
                0x00000000010476a4        0x4 drivers/mmc/built-in.o
                0x00000000010476a4                mmc_get_ext_csd
 .text.mmc_switch_part
                0x00000000010476a8       0x68 drivers/mmc/built-in.o
                0x00000000010476a8                mmc_switch_part
 .text.mmc_select_hwpart
                0x0000000001047710       0x84 drivers/mmc/built-in.o
                0x0000000001047710                mmc_select_hwpart
 .text.mmc_getcd
                0x0000000001047794       0x44 drivers/mmc/built-in.o
                0x0000000001047794                mmc_getcd
 .text.aml_emmc_refix
                0x00000000010477d8       0x4c drivers/mmc/built-in.o
                0x00000000010477d8                aml_emmc_refix
 .text.mmc_set_clock
                0x0000000001047824       0x24 drivers/mmc/built-in.o
                0x0000000001047824                mmc_set_clock
 .text.mmc_startup
                0x0000000001047848      0xb04 drivers/mmc/built-in.o
 .text.mmc_create
                0x000000000104834c       0xf0 drivers/mmc/built-in.o
                0x000000000104834c                mmc_create
 .text.board_mmc_power_init
                0x000000000104843c        0x4 drivers/mmc/built-in.o
                0x000000000104843c                board_mmc_power_init
 .text.mmc_start_init
                0x0000000001048440      0x238 drivers/mmc/built-in.o
                0x0000000001048440                mmc_start_init
 .text.mmc_write_cali_mattern
                0x0000000001048678       0x50 drivers/mmc/built-in.o
                0x0000000001048678                mmc_write_cali_mattern
 .text.mmc_pattern_check
                0x00000000010486c8      0x188 drivers/mmc/built-in.o
                0x00000000010486c8                mmc_pattern_check
 .text.mmc_init
                0x0000000001048850      0x1d0 drivers/mmc/built-in.o
                0x0000000001048850                mmc_init
 .text.mmc_get_dev
                0x0000000001048a20       0x38 drivers/mmc/built-in.o
                0x0000000001048a20                mmc_get_dev
 .text.mmc_set_dsr
                0x0000000001048a58       0x10 drivers/mmc/built-in.o
                0x0000000001048a58                mmc_set_dsr
 .text.cpu_mmc_init
                0x0000000001048a68        0x8 drivers/mmc/built-in.o
                0x0000000001048a68                cpu_mmc_init
 .text.print_mmc_devices
                0x0000000001048a70       0xb4 drivers/mmc/built-in.o
                0x0000000001048a70                print_mmc_devices
 .text.get_mmc_num
                0x0000000001048b24       0x10 drivers/mmc/built-in.o
                0x0000000001048b24                get_mmc_num
 .text.mmc_initialize
                0x0000000001048b34       0x80 drivers/mmc/built-in.o
                0x0000000001048b34                mmc_initialize
 .text.mmc_key_read
                0x0000000001048bb4       0xbc drivers/mmc/built-in.o
                0x0000000001048bb4                mmc_key_read
 .text.mmc_key_write
                0x0000000001048c70       0xdc drivers/mmc/built-in.o
                0x0000000001048c70                mmc_key_write
 .text.mmc_key_erase
                0x0000000001048d4c       0x9c drivers/mmc/built-in.o
                0x0000000001048d4c                mmc_key_erase
 .text.aml_sd_calibration
                0x0000000001048de8       0x54 drivers/mmc/built-in.o
                0x0000000001048de8                aml_sd_calibration
 .text.aml_sd_cfg_swth
                0x0000000001048e3c      0x12c drivers/mmc/built-in.o
                0x0000000001048e3c                aml_sd_cfg_swth
 .text.aml_sd_send_cmd
                0x0000000001048f68      0x3f0 drivers/mmc/built-in.o
                0x0000000001048f68                aml_sd_send_cmd
 .text.aml_sd_init
                0x0000000001049358      0x180 drivers/mmc/built-in.o
                0x0000000001049358                aml_sd_init
 .text.cpu_sd_emmc_get
                0x00000000010494d8       0x28 drivers/mmc/built-in.o
                0x00000000010494d8                cpu_sd_emmc_get
 .text.aml_send_calibration_blocks
                0x0000000001049500       0xd0 drivers/mmc/built-in.o
                0x0000000001049500                aml_send_calibration_blocks
 .text.sd_emmc_test_adj
                0x00000000010495d0      0x160 drivers/mmc/built-in.o
                0x00000000010495d0                sd_emmc_test_adj
 .text.aml_sd_retry_refix
                0x0000000001049730      0x264 drivers/mmc/built-in.o
                0x0000000001049730                aml_sd_retry_refix
 .text.sd_emmc_register
                0x0000000001049994       0x7c drivers/mmc/built-in.o
                0x0000000001049994                sd_emmc_register
 .text.aml_is_emmc_tsd
                0x0000000001049a10       0x14 drivers/mmc/built-in.o
                0x0000000001049a10                aml_is_emmc_tsd
 .text._calc_iptbl_check
                0x0000000001049a24       0x84 drivers/mmc/built-in.o
 .text._zalloc_iptbl
                0x0000000001049aa8       0xb8 drivers/mmc/built-in.o
 .text._find_partition_by_name
                0x0000000001049b60       0x88 drivers/mmc/built-in.o
 .text._get_version
                0x0000000001049be8       0x50 drivers/mmc/built-in.o
 .text._calculate_offset.isra.5
                0x0000000001049c38      0x10c drivers/mmc/built-in.o
 .text._get_inherent_offset.constprop.9
                0x0000000001049d44       0x38 drivers/mmc/built-in.o
 .text.find_mmc_partition_by_name
                0x0000000001049d7c       0x28 drivers/mmc/built-in.o
                0x0000000001049d7c                find_mmc_partition_by_name
 .text.find_dev_num_by_partition_name
                0x0000000001049da4       0x48 drivers/mmc/built-in.o
                0x0000000001049da4                find_dev_num_by_partition_name
 .text.get_part_info_from_tbl
                0x0000000001049dec       0x6c drivers/mmc/built-in.o
                0x0000000001049dec                get_part_info_from_tbl
 .text.aml_get_partition_by_name
                0x0000000001049e58       0x5c drivers/mmc/built-in.o
                0x0000000001049e58                aml_get_partition_by_name
 .text.aml_get_virtual_partition_by_name
                0x0000000001049eb4       0x6c drivers/mmc/built-in.o
                0x0000000001049eb4                aml_get_virtual_partition_by_name
 .text.mmc_device_init
                0x0000000001049f20      0x84c drivers/mmc/built-in.o
                0x0000000001049f20                mmc_device_init
 .text.find_virtual_partition_by_name
                0x000000000104a76c       0xe0 drivers/mmc/built-in.o
                0x000000000104a76c                find_virtual_partition_by_name
 .text.get_part_info_by_name
                0x000000000104a84c       0xfc drivers/mmc/built-in.o
                0x000000000104a84c                get_part_info_by_name
 .text.mmc_berase
                0x000000000104a948      0x214 drivers/mmc/built-in.o
                0x000000000104a948                mmc_berase
 .text.mmc_bwrite
                0x000000000104ab5c      0x1ac drivers/mmc/built-in.o
                0x000000000104ab5c                mmc_bwrite
 .text.amlnand_get_partition_table
                0x000000000104ad08      0x180 drivers/nand/built-in.o
                0x000000000104ad08                amlnand_get_partition_table
 .text.aml_nand_malloc
                0x000000000104ae88        0xc drivers/nand/built-in.o
                0x000000000104ae88                aml_nand_malloc
 .text.aml_nand_free
                0x000000000104ae94        0x4 drivers/nand/built-in.o
                0x000000000104ae94                aml_nand_free
 .text.nand_get_chip
                0x000000000104ae98      0x114 drivers/nand/built-in.o
                0x000000000104ae98                nand_get_chip
 .text.nand_release_chip
                0x000000000104afac       0x2c drivers/nand/built-in.o
                0x000000000104afac                nand_release_chip
 .text.amlnand_get_device
                0x000000000104afd8       0x34 drivers/nand/built-in.o
                0x000000000104afd8                amlnand_get_device
 .text.amlnand_release_device
                0x000000000104b00c       0x28 drivers/nand/built-in.o
                0x000000000104b00c                amlnand_release_device
 .text.pinmux_select_chip
                0x000000000104b034       0x84 drivers/nand/built-in.o
                0x000000000104b034                pinmux_select_chip
 .text.set_nand_core_clk
                0x000000000104b0b8       0x50 drivers/nand/built-in.o
                0x000000000104b0b8                set_nand_core_clk
 .text.get_sys_clk_rate
                0x000000000104b108        0x8 drivers/nand/built-in.o
                0x000000000104b108                get_sys_clk_rate
 .text.nand_boot_info_prepare
                0x000000000104b110      0x218 drivers/nand/built-in.o
                0x000000000104b110                nand_boot_info_prepare
 .text.uboot_set_ran_mode
                0x000000000104b328       0x10 drivers/nand/built-in.o
                0x000000000104b328                uboot_set_ran_mode
 .text.aml_sys_info_init
                0x000000000104b338      0x130 drivers/nand/built-in.o
                0x000000000104b338                aml_sys_info_init
 .text.amlnf_disprotect
                0x000000000104b468      0x138 drivers/nand/built-in.o
                0x000000000104b468                amlnf_disprotect
 .text.is_phydev_off_adjust
                0x000000000104b5a0        0x8 drivers/nand/built-in.o
                0x000000000104b5a0                is_phydev_off_adjust
 .text.get_adjust_block_num
                0x000000000104b5a8        0x8 drivers/nand/built-in.o
                0x000000000104b5a8                get_adjust_block_num
 .text.amlnf_get_logicdev
                0x000000000104b5b0        0x8 drivers/nand/built-in.o
                0x000000000104b5b0                amlnf_get_logicdev
 .text.amlnf_free_logicdev
                0x000000000104b5b8        0x8 drivers/nand/built-in.o
                0x000000000104b5b8                amlnf_free_logicdev
 .text.poc_cfg_prase
                0x000000000104b5c0       0x30 drivers/nand/built-in.o
                0x000000000104b5c0                poc_cfg_prase
 .text.check_storage_device
                0x000000000104b5f0       0x54 drivers/nand/built-in.o
                0x000000000104b5f0                check_storage_device
 .text.amlnf_init
                0x000000000104b644      0x178 drivers/nand/built-in.o
                0x000000000104b644                amlnf_init
 .text.amlnf_exit
                0x000000000104b7bc       0x28 drivers/nand/built-in.o
                0x000000000104b7bc                amlnf_exit
 .text.aml_phy_get_dev
                0x000000000104b7e4       0x7c drivers/nand/built-in.o
                0x000000000104b7e4                aml_phy_get_dev
 .text.aml_nftl_get_dev
                0x000000000104b860       0x78 drivers/nand/built-in.o
                0x000000000104b860                aml_nftl_get_dev
 .text.show_ldev_list
                0x000000000104b8d8       0x7c drivers/nand/built-in.o
                0x000000000104b8d8                show_ldev_list
 .text.amlnf_logicdev_mis_init
                0x000000000104b954        0x8 drivers/nand/built-in.o
                0x000000000104b954                amlnf_logicdev_mis_init
 .text.unlikely.arg_off_size
                0x000000000104b95c      0x1a8 drivers/nand/built-in.o
 .text.amlnand_read
                0x000000000104bb04      0x12c drivers/nand/built-in.o
                0x000000000104bb04                amlnand_read
 .text.amlnand_write
                0x000000000104bc30      0x178 drivers/nand/built-in.o
                0x000000000104bc30                amlnand_write
 .text.do_amlnfphy
                0x000000000104bda8     0x122c drivers/nand/built-in.o
 .text.amlnf_env_save
                0x000000000104cfd4      0x100 drivers/nand/built-in.o
                0x000000000104cfd4                amlnf_env_save
 .text.amlnf_env_read
                0x000000000104d0d4      0x130 drivers/nand/built-in.o
                0x000000000104d0d4                amlnf_env_read
 .text.aml_ubootenv_init
                0x000000000104d204       0xa4 drivers/nand/built-in.o
                0x000000000104d204                aml_ubootenv_init
 .text.aml_nand_update_ubootenv
                0x000000000104d2a8       0xc4 drivers/nand/built-in.o
                0x000000000104d2a8                aml_nand_update_ubootenv
 .text.amlnf_dtb_save
                0x000000000104d36c      0x12c drivers/nand/built-in.o
                0x000000000104d36c                amlnf_dtb_save
 .text.amlnf_dtb_erase
                0x000000000104d498       0x74 drivers/nand/built-in.o
                0x000000000104d498                amlnf_dtb_erase
 .text.amlnf_dtb_read
                0x000000000104d50c      0x170 drivers/nand/built-in.o
                0x000000000104d50c                amlnf_dtb_read
 .text.amlnf_dtb_init
                0x000000000104d67c       0xc0 drivers/nand/built-in.o
                0x000000000104d67c                amlnf_dtb_init
 .text.amlnf_dtb_init_partitions
                0x000000000104d73c       0xe8 drivers/nand/built-in.o
                0x000000000104d73c                amlnf_dtb_init_partitions
 .text.amlnf_detect_dtb_partitions
                0x000000000104d824       0xf8 drivers/nand/built-in.o
                0x000000000104d824                amlnf_detect_dtb_partitions
 .text.amlnf_key_read
                0x000000000104d91c       0xe0 drivers/nand/built-in.o
                0x000000000104d91c                amlnf_key_read
 .text.amlnf_key_write
                0x000000000104d9fc       0xe0 drivers/nand/built-in.o
                0x000000000104d9fc                amlnf_key_write
 .text.amlnf_key_erase
                0x000000000104dadc       0x74 drivers/nand/built-in.o
                0x000000000104dadc                amlnf_key_erase
 .text.aml_key_init
                0x000000000104db50       0xac drivers/nand/built-in.o
                0x000000000104db50                aml_key_init
 .text.nand_read_ops_test
                0x000000000104dbfc      0x1c8 drivers/nand/built-in.o
 .text.nand_write_ops_test.isra.1
                0x000000000104ddc4      0x224 drivers/nand/built-in.o
 .text.nand_erase_ops_test.constprop.2
                0x000000000104dfe8      0x118 drivers/nand/built-in.o
 .text.do_amlnand_test
                0x000000000104e100      0x850 drivers/nand/built-in.o
                0x000000000104e100                do_amlnand_test
 .text.nftl_cache_init
                0x000000000104e950       0xc4 drivers/nand/built-in.o
                0x000000000104e950                nftl_cache_init
 .text.nftl_cache_exit
                0x000000000104ea14       0x1c drivers/nand/built-in.o
                0x000000000104ea14                nftl_cache_exit
 .text.search_from_cache_read_list
                0x000000000104ea30       0x20 drivers/nand/built-in.o
                0x000000000104ea30                search_from_cache_read_list
 .text.search_from_cache_write_list
                0x000000000104ea50       0x20 drivers/nand/built-in.o
                0x000000000104ea50                search_from_cache_write_list
 .text.get_empty_cahce_node
                0x000000000104ea70       0x40 drivers/nand/built-in.o
                0x000000000104ea70                get_empty_cahce_node
 .text.add_to_cache_read_list_tail
                0x000000000104eab0       0x38 drivers/nand/built-in.o
                0x000000000104eab0                add_to_cache_read_list_tail
 .text.add_to_cache_write_list_tail
                0x000000000104eae8       0x3c drivers/nand/built-in.o
                0x000000000104eae8                add_to_cache_write_list_tail
 .text.del_from_cache_read_list
                0x000000000104eb24       0x3c drivers/nand/built-in.o
                0x000000000104eb24                del_from_cache_read_list
 .text.nand_cache_read
                0x000000000104eb60      0x178 drivers/nand/built-in.o
                0x000000000104eb60                nand_cache_read
 .text.del_from_cache_write_list
                0x000000000104ecd8       0x3c drivers/nand/built-in.o
                0x000000000104ecd8                del_from_cache_write_list
 .text.nand_cache_write
                0x000000000104ed14      0x29c drivers/nand/built-in.o
                0x000000000104ed14                nand_cache_write
 .text.nand_op  0x000000000104efb0       0xf0 drivers/nand/built-in.o
                0x000000000104efb0                nand_op
 .text.nftl_nand_read
                0x000000000104f0a0       0x60 drivers/nand/built-in.o
                0x000000000104f0a0                nftl_nand_read
 .text.nftl_nand_write
                0x000000000104f100       0x60 drivers/nand/built-in.o
                0x000000000104f100                nftl_nand_write
 .text.nftl_nand_flush_write_cache
                0x000000000104f160       0x6c drivers/nand/built-in.o
                0x000000000104f160                nftl_nand_flush_write_cache
 .text.nftl_nand_flush
                0x000000000104f1cc        0x4 drivers/nand/built-in.o
                0x000000000104f1cc                nftl_nand_flush
 .text.set_spare_data
                0x000000000104f1d0       0x38 drivers/nand/built-in.o
                0x000000000104f1d0                set_spare_data
 .text.get_spare_data
                0x000000000104f208       0x34 drivers/nand/built-in.o
                0x000000000104f208                get_spare_data
 .text.set_oob_logic_page
                0x000000000104f23c       0x74 drivers/nand/built-in.o
                0x000000000104f23c                set_oob_logic_page
 .text.set_oob_special_page
                0x000000000104f2b0       0x64 drivers/nand/built-in.o
                0x000000000104f2b0                set_oob_special_page
 .text.get_block_used_count_from_oob
                0x000000000104f314        0xc drivers/nand/built-in.o
                0x000000000104f314                get_block_used_count_from_oob
 .text.get_logic_page_from_oob
                0x000000000104f320       0x20 drivers/nand/built-in.o
                0x000000000104f320                get_logic_page_from_oob
 .text.nand_copy_page
                0x000000000104f340       0xbc drivers/nand/built-in.o
                0x000000000104f340                nand_copy_page
 .text.get_special_data_from_oob
                0x000000000104f3fc        0xc drivers/nand/built-in.o
                0x000000000104f3fc                get_special_data_from_oob
 .text.get_erase_count_from_oob
                0x000000000104f408       0x1c drivers/nand/built-in.o
                0x000000000104f408                get_erase_count_from_oob
 .text.get_logic_page_map
                0x000000000104f424       0x3c drivers/nand/built-in.o
                0x000000000104f424                get_logic_page_map
 .text.init_logic_page_map
                0x000000000104f460       0xec drivers/nand/built-in.o
                0x000000000104f460                init_logic_page_map
 .text.part_param_init
                0x000000000104f54c      0x1c0 drivers/nand/built-in.o
                0x000000000104f54c                part_param_init
 .text.part_param_exit
                0x000000000104f70c       0x58 drivers/nand/built-in.o
                0x000000000104f70c                part_param_exit
 .text.do_write_error_in_create_list
                0x000000000104f764      0x140 drivers/nand/built-in.o
                0x000000000104f764                do_write_error_in_create_list
 .text.is_last_phy_block
                0x000000000104f8a4       0x1c drivers/nand/built-in.o
                0x000000000104f8a4                is_last_phy_block
 .text.is_no_use_device
                0x000000000104f8c0      0x150 drivers/nand/built-in.o
                0x000000000104f8c0                is_no_use_device
 .text.get_vaild_blocks
                0x000000000104fa10       0xa0 drivers/nand/built-in.o
                0x000000000104fa10                get_vaild_blocks
 .text.create_part_list_first
                0x000000000104fab0      0x328 drivers/nand/built-in.o
                0x000000000104fab0                create_part_list_first
 .text.get_phy_block_addr
                0x000000000104fdd8       0x1c drivers/nand/built-in.o
                0x000000000104fdd8                get_phy_block_addr
 .text.get_used_page_num
                0x000000000104fdf4       0x8c drivers/nand/built-in.o
                0x000000000104fdf4                get_used_page_num
 .text.recover_current_block_mapping
                0x000000000104fe80      0x100 drivers/nand/built-in.o
                0x000000000104fe80                recover_current_block_mapping
 .text.recover_block_log2pyh_mapping
                0x000000000104ff80      0x138 drivers/nand/built-in.o
                0x000000000104ff80                recover_block_log2pyh_mapping
 .text.create_part_list
                0x00000000010500b8      0x80c drivers/nand/built-in.o
                0x00000000010500b8                create_part_list
 .text.prio_garbage_collect_no_last_page
                0x00000000010508c4      0x1b4 drivers/nand/built-in.o
                0x00000000010508c4                prio_garbage_collect_no_last_page
 .text.prio_garbage_collect
                0x0000000001050a78      0x2a8 drivers/nand/built-in.o
                0x0000000001050a78                prio_garbage_collect
 .text.garbage_collect_first
                0x0000000001050d20      0x240 drivers/nand/built-in.o
                0x0000000001050d20                garbage_collect_first
 .text.garbage_collect
                0x0000000001050f60      0x108 drivers/nand/built-in.o
                0x0000000001050f60                garbage_collect
 .text.get_empty_gc_node
                0x0000000001051068       0x34 drivers/nand/built-in.o
                0x0000000001051068                get_empty_gc_node
 .text.search_gc_node
                0x000000000105109c       0x20 drivers/nand/built-in.o
                0x000000000105109c                search_gc_node
 .text.add_to_gc_list_tail
                0x00000000010510bc       0x34 drivers/nand/built-in.o
                0x00000000010510bc                add_to_gc_list_tail
 .text.del_from_gc_list
                0x00000000010510f0       0x34 drivers/nand/built-in.o
                0x00000000010510f0                del_from_gc_list
 .text.add_prio_gc
                0x0000000001051124       0x70 drivers/nand/built-in.o
                0x0000000001051124                add_prio_gc
 .text.do_prio_gc
                0x0000000001051194       0xa0 drivers/nand/built-in.o
                0x0000000001051194                do_prio_gc
 .text.amlnf_read_sector
                0x0000000001051234       0x28 drivers/nand/built-in.o
                0x0000000001051234                amlnf_read_sector
 .text.amlnf_write_sector
                0x000000000105125c       0x28 drivers/nand/built-in.o
                0x000000000105125c                amlnf_write_sector
 .text.amlnf_flush
                0x0000000001051284       0x1c drivers/nand/built-in.o
                0x0000000001051284                amlnf_flush
 .text.logicdev_flush
                0x00000000010512a0       0x48 drivers/nand/built-in.o
 .text.logicdev_write_data
                0x00000000010512e8       0x50 drivers/nand/built-in.o
 .text.logicdev_read_data
                0x0000000001051338       0x50 drivers/nand/built-in.o
 .text.aml_nftl_initialize
                0x0000000001051388      0x118 drivers/nand/built-in.o
                0x0000000001051388                aml_nftl_initialize
 .text.aml_create_nftl_dev
                0x00000000010514a0      0x168 drivers/nand/built-in.o
                0x00000000010514a0                aml_create_nftl_dev
 .text.amlnf_logic_init
                0x0000000001051608      0x1e8 drivers/nand/built-in.o
                0x0000000001051608                amlnf_logic_init
 .text.amlnf_logic_exit
                0x00000000010517f0       0xa4 drivers/nand/built-in.o
                0x00000000010517f0                amlnf_logic_exit
 .text.aml_nftl_get_part_cap
                0x0000000001051894        0x8 drivers/nand/built-in.o
                0x0000000001051894                aml_nftl_get_part_cap
 .text.aml_nftl_get_part_priv
                0x000000000105189c        0x8 drivers/nand/built-in.o
                0x000000000105189c                aml_nftl_get_part_priv
 .text.aml_nftl_add_part_total_read
                0x00000000010518a4       0x10 drivers/nand/built-in.o
                0x00000000010518a4                aml_nftl_add_part_total_read
 .text.aml_nftl_add_part_total_write
                0x00000000010518b4       0x10 drivers/nand/built-in.o
                0x00000000010518b4                aml_nftl_add_part_total_write
 .text.add_free_list
                0x00000000010518c4       0x40 drivers/nand/built-in.o
                0x00000000010518c4                add_free_list
 .text.del_free_list
                0x0000000001051904       0x18 drivers/nand/built-in.o
                0x0000000001051904                del_free_list
 .text.print_free_list
                0x000000000105191c       0x6c drivers/nand/built-in.o
                0x000000000105191c                print_free_list
 .text.add_block_invalid_list
                0x0000000001051988       0x48 drivers/nand/built-in.o
                0x0000000001051988                add_block_invalid_list
 .text.del_block_invalid_list
                0x00000000010519d0       0x28 drivers/nand/built-in.o
                0x00000000010519d0                del_block_invalid_list
 .text.del_block_invalid_list_by_block
                0x00000000010519f8       0x40 drivers/nand/built-in.o
                0x00000000010519f8                del_block_invalid_list_by_block
 .text.print_block_invalid_list
                0x0000000001051a38        0xc drivers/nand/built-in.o
                0x0000000001051a38                print_block_invalid_list
 .text.add_block_count_list
                0x0000000001051a44       0x48 drivers/nand/built-in.o
                0x0000000001051a44                add_block_count_list
 .text.put_phy_block_to_free_list
                0x0000000001051a8c       0x4c drivers/nand/built-in.o
                0x0000000001051a8c                put_phy_block_to_free_list
 .text.out_phy_block_from_free_list
                0x0000000001051ad8       0x38 drivers/nand/built-in.o
                0x0000000001051ad8                out_phy_block_from_free_list
 .text.put_phy_block_to_invalid_page_list
                0x0000000001051b10       0x3c drivers/nand/built-in.o
                0x0000000001051b10                put_phy_block_to_invalid_page_list
 .text.out_phy_block_from_invalid_page_list
                0x0000000001051b4c       0x20 drivers/nand/built-in.o
                0x0000000001051b4c                out_phy_block_from_invalid_page_list
 .text.out_phy_block_from_invalid_page_list_by_block
                0x0000000001051b6c       0x20 drivers/nand/built-in.o
                0x0000000001051b6c                out_phy_block_from_invalid_page_list_by_block
 .text.phy_block_from_invalid_page_incr
                0x0000000001051b8c       0xdc drivers/nand/built-in.o
                0x0000000001051b8c                phy_block_from_invalid_page_incr
 .text.adjust_invaild_list
                0x0000000001051c68       0x54 drivers/nand/built-in.o
                0x0000000001051c68                adjust_invaild_list
 .text.nand_read_logic_page
                0x0000000001051cbc      0x140 drivers/nand/built-in.o
                0x0000000001051cbc                nand_read_logic_page
 .text.do_write_error
                0x0000000001051dfc      0x2cc drivers/nand/built-in.o
                0x0000000001051dfc                do_write_error
 .text.write_phy_page_map
                0x00000000010520c8      0x194 drivers/nand/built-in.o
                0x00000000010520c8                write_phy_page_map
 .text.set_new_current_block
                0x000000000105225c       0x70 drivers/nand/built-in.o
                0x000000000105225c                set_new_current_block
 .text.nand_write_logic_page_no_gc
                0x00000000010522cc      0x268 drivers/nand/built-in.o
                0x00000000010522cc                nand_write_logic_page_no_gc
 .text.nand_write_logic_page
                0x0000000001052534       0x68 drivers/nand/built-in.o
                0x0000000001052534                nand_write_logic_page
 .text.aml_nftl_ops_init
                0x000000000105259c       0x64 drivers/nand/built-in.o
                0x000000000105259c                aml_nftl_ops_init
 .text.generic_ffs
                0x0000000001052600      0x24c drivers/nand/built-in.o
 .text.aml_nftl_start
                0x000000000105284c      0x3e0 drivers/nand/built-in.o
                0x000000000105284c                aml_nftl_start
 .text.aml_nftl_part_release
                0x0000000001052c2c       0x50 drivers/nand/built-in.o
                0x0000000001052c2c                aml_nftl_part_release
 .text.nand_erase_superblk
                0x0000000001052c7c       0x64 drivers/nand/built-in.o
                0x0000000001052c7c                nand_erase_superblk
 .text.nand_read_page
                0x0000000001052ce0       0xdc drivers/nand/built-in.o
                0x0000000001052ce0                nand_read_page
 .text.nand_write_page
                0x0000000001052dbc       0x98 drivers/nand/built-in.o
                0x0000000001052dbc                nand_write_page
 .text.nand_is_blk_good
                0x0000000001052e54       0x70 drivers/nand/built-in.o
                0x0000000001052e54                nand_is_blk_good
 .text.nand_mark_bad_blk
                0x0000000001052ec4       0x6c drivers/nand/built-in.o
                0x0000000001052ec4                nand_mark_bad_blk
 .text.dbg_buffer_free
                0x0000000001052f30       0x3c drivers/nand/built-in.o
 .text.dbg_calcaddress
                0x0000000001052f6c       0xa0 drivers/nand/built-in.o
                0x0000000001052f6c                dbg_calcaddress
 .text.dbg_readpage
                0x000000000105300c       0xf4 drivers/nand/built-in.o
                0x000000000105300c                dbg_readpage
 .text.dbg_phyop
                0x0000000001053100      0x108 drivers/nand/built-in.o
                0x0000000001053100                dbg_phyop
 .text.amlnand_clear_pinmux
                0x0000000001053208       0x20 drivers/nand/built-in.o
                0x0000000001053208                amlnand_clear_pinmux
 .text.amlnf_phy_init
                0x0000000001053228      0x1e8 drivers/nand/built-in.o
                0x0000000001053228                amlnf_phy_init
 .text.amlchip_dumpinfo
                0x0000000001053410       0xf8 drivers/nand/built-in.o
                0x0000000001053410                amlchip_dumpinfo
 .text.amlnand_chip_init
                0x0000000001053508      0x60c drivers/nand/built-in.o
                0x0000000001053508                amlnand_chip_init
 .text.nand_reset
                0x0000000001053b14      0x144 drivers/nand/built-in.o
                0x0000000001053b14                nand_reset
 .text.ecc_read_retry_handle
                0x0000000001053c58      0x21c drivers/nand/built-in.o
 .text.read_id  0x0000000001053e74      0x130 drivers/nand/built-in.o
 .text.update_bbt_chip_op
                0x0000000001053fa4       0x70 drivers/nand/built-in.o
 .text.check_wp
                0x0000000001054014      0x14c drivers/nand/built-in.o
 .text.get_onfi_features
                0x0000000001054160      0x138 drivers/nand/built-in.o
 .text.set_onfi_features
                0x0000000001054298      0x144 drivers/nand/built-in.o
 .text.blk_modify_bbt_chip_op
                0x00000000010543dc      0x1fc drivers/nand/built-in.o
 .text.block_markbad
                0x00000000010545d8      0x2ac drivers/nand/built-in.o
 .text.get_blcok_status.isra.2
                0x0000000001054884       0x5c drivers/nand/built-in.o
 .text.block_isbad
                0x00000000010548e0      0x23c drivers/nand/built-in.o
 .text.check_cmdfifo_size.isra.3
                0x0000000001054b1c       0x98 drivers/nand/built-in.o
 .text.write_page
                0x0000000001054bb4      0x7b0 drivers/nand/built-in.o
 .text.read_page_two_plane
                0x0000000001055364      0xbb0 drivers/nand/built-in.o
 .text.erase_block
                0x0000000001055f14      0x52c drivers/nand/built-in.o
 .text.read_page_single_plane
                0x0000000001056440      0x460 drivers/nand/built-in.o
 .text.read_page
                0x00000000010568a0      0x184 drivers/nand/built-in.o
 .text.test_block_reserved
                0x0000000001056a24      0x480 drivers/nand/built-in.o
 .text.test_block_chip_op
                0x0000000001056ea4      0x2c4 drivers/nand/built-in.o
 .text.amlnand_init_operation
                0x0000000001057168      0x128 drivers/nand/built-in.o
                0x0000000001057168                amlnand_init_operation
 .text.controller_enter_standby
                0x0000000001057290       0x10 drivers/nand/built-in.o
                0x0000000001057290                controller_enter_standby
 .text.controller_cmd_ctrl
                0x00000000010572a0       0x38 drivers/nand/built-in.o
 .text.controller_write_byte
                0x00000000010572d8       0x98 drivers/nand/built-in.o
 .text.controller_read_byte
                0x0000000001057370       0x74 drivers/nand/built-in.o
 .text.controller_hwecc_correct
                0x00000000010573e4       0xb0 drivers/nand/built-in.o
 .text.controller_ecc_confirm
                0x0000000001057494      0x2e0 drivers/nand/built-in.o
 .text.controller_set_user_byte
                0x0000000001057774       0x5c drivers/nand/built-in.o
 .text.controller_get_user_byte
                0x00000000010577d0       0x64 drivers/nand/built-in.o
 .text.controller_dma_write
                0x0000000001057834      0x230 drivers/nand/built-in.o
 .text.controller_dma_read
                0x0000000001057a64      0x20c drivers/nand/built-in.o
 .text.controller_quene_rb
                0x0000000001057c70      0x144 drivers/nand/built-in.o
 .text.controller_adjust_timing
                0x0000000001057db4       0xec drivers/nand/built-in.o
 .text.controller_hw_init
                0x0000000001057ea0       0x7c drivers/nand/built-in.o
 .text.controller_select_chip
                0x0000000001057f1c       0xc4 drivers/nand/built-in.o
 .text._dump_mem
                0x0000000001057fe0       0x9c drivers/nand/built-in.o
                0x0000000001057fe0                _dump_mem
 .text.amlnand_hwcontroller_init
                0x000000000105807c      0x204 drivers/nand/built-in.o
                0x000000000105807c                amlnand_hwcontroller_init
 .text.generic_ffs.part.0
                0x0000000001058280       0x54 drivers/nand/built-in.o
 .text.amlnand_slc_addr_trs
                0x00000000010582d4       0xc0 drivers/nand/built-in.o
 .text.nand_erase
                0x0000000001058394      0x160 drivers/nand/built-in.o
                0x0000000001058394                nand_erase
 .text.update_bbt
                0x00000000010584f4       0xf4 drivers/nand/built-in.o
 .text.block_modifybbt
                0x00000000010585e8      0x110 drivers/nand/built-in.o
 .text.nand_block_markbad
                0x00000000010586f8       0xf4 drivers/nand/built-in.o
 .text.nand_block_isbad
                0x00000000010587ec       0xfc drivers/nand/built-in.o
 .text.nand_read
                0x00000000010588e8      0x1c0 drivers/nand/built-in.o
 .text.nand_test_block
                0x0000000001058aa8      0x210 drivers/nand/built-in.o
 .text.nand_write
                0x0000000001058cb8      0x218 drivers/nand/built-in.o
 .text.set_chip_state
                0x0000000001058ed0        0x8 drivers/nand/built-in.o
                0x0000000001058ed0                set_chip_state
 .text.phydev_init_erase
                0x0000000001058ed8      0x1f4 drivers/nand/built-in.o
                0x0000000001058ed8                phydev_init_erase
 .text.amldev_dumpinfo
                0x00000000010590cc       0x60 drivers/nand/built-in.o
                0x00000000010590cc                amldev_dumpinfo
 .text.phydev_add_list
                0x000000000105912c       0x8c drivers/nand/built-in.o
                0x000000000105912c                phydev_add_list
 .text.show_phydev_list
                0x00000000010591b8       0x7c drivers/nand/built-in.o
                0x00000000010591b8                show_phydev_list
 .text.boot_dev_init
                0x0000000001059234      0x19c drivers/nand/built-in.o
                0x0000000001059234                boot_dev_init
 .text.aml_alloc_phydev
                0x00000000010593d0      0x130 drivers/nand/built-in.o
                0x00000000010593d0                aml_alloc_phydev
 .text.amlnand_phydev_init
                0x0000000001059500      0x87c drivers/nand/built-in.o
                0x0000000001059500                amlnand_phydev_init
 .text.amlnf_phy_exit
                0x0000000001059d7c       0xc8 drivers/nand/built-in.o
                0x0000000001059d7c                amlnf_phy_exit
 .text.unlikely.confirm_dev_para
                0x0000000001059e44      0x118 drivers/nand/built-in.o
 .text.unlikely.init_dev_para
                0x0000000001059f5c       0xa8 drivers/nand/built-in.o
 .text.amlnand_get_dev_num
                0x000000000105a004      0x1e8 drivers/nand/built-in.o
 .text.chipenv_init_erase_protect
                0x000000000105a1ec      0x154 drivers/nand/built-in.o
                0x000000000105a1ec                chipenv_init_erase_protect
 .text.bad_block_is_dtb_blk
                0x000000000105a340       0x54 drivers/nand/built-in.o
                0x000000000105a340                bad_block_is_dtb_blk
 .text.reset_amlchip_member
                0x000000000105a394       0x78 drivers/nand/built-in.o
                0x000000000105a394                reset_amlchip_member
 .text.aml_info_checksum
                0x000000000105a40c       0x28 drivers/nand/built-in.o
                0x000000000105a40c                aml_info_checksum
 .text.get_last_reserve_block
                0x000000000105a434      0x160 drivers/nand/built-in.o
                0x000000000105a434                get_last_reserve_block
 .text.amlnand_get_free_block
                0x000000000105a594      0x214 drivers/nand/built-in.o
                0x000000000105a594                amlnand_get_free_block
 .text.amlnand_erase_info_by_name
                0x000000000105a7a8      0x1cc drivers/nand/built-in.o
                0x000000000105a7a8                amlnand_erase_info_by_name
 .text.amlnand_read_info_by_name
                0x000000000105a974      0x2b8 drivers/nand/built-in.o
                0x000000000105a974                amlnand_read_info_by_name
 .text.amlnand_save_info_by_name
                0x000000000105ac2c      0xf44 drivers/nand/built-in.o
                0x000000000105ac2c                amlnand_save_info_by_name
 .text.amlnand_check_info_by_name
                0x000000000105bb70      0x804 drivers/nand/built-in.o
                0x000000000105bb70                amlnand_check_info_by_name
 .text.amlnand_info_init
                0x000000000105c374      0x1e4 drivers/nand/built-in.o
                0x000000000105c374                amlnand_info_init
 .text.amlnand_oops_handle
                0x000000000105c558      0x2d8 drivers/nand/built-in.o
 .text.amlnand_update_bbt
                0x000000000105c830       0x70 drivers/nand/built-in.o
                0x000000000105c830                amlnand_update_bbt
 .text.repair_reserved_bad_block
                0x000000000105c8a0      0x458 drivers/nand/built-in.o
                0x000000000105c8a0                repair_reserved_bad_block
 .text.amlnand_info_error_handle
                0x000000000105ccf8      0x130 drivers/nand/built-in.o
                0x000000000105ccf8                amlnand_info_error_handle
 .text.amlnand_recover_fbbt
                0x000000000105ce28       0xfc drivers/nand/built-in.o
                0x000000000105ce28                amlnand_recover_fbbt
 .text.amlnand_init_block_status
                0x000000000105cf24       0xc8 drivers/nand/built-in.o
                0x000000000105cf24                amlnand_init_block_status
 .text.amlnand_configs_confirm
                0x000000000105cfec      0x1c0 drivers/nand/built-in.o
                0x000000000105cfec                amlnand_configs_confirm
 .text.aml_nand_save_hynix_info
                0x000000000105d1ac      0x410 drivers/nand/built-in.o
                0x000000000105d1ac                aml_nand_save_hynix_info
 .text.aml_nand_scan_hynix_info
                0x000000000105d5bc      0x404 drivers/nand/built-in.o
                0x000000000105d5bc                aml_nand_scan_hynix_info
 .text.amlnand_config_buf_free
                0x000000000105d9c0       0x90 drivers/nand/built-in.o
                0x000000000105d9c0                amlnand_config_buf_free
 .text.shipped_badblock_detect
                0x000000000105da50      0x5a8 drivers/nand/built-in.o
 .text.amlnand_set_config_attribute
                0x000000000105dff8       0x2c drivers/nand/built-in.o
                0x000000000105dff8                amlnand_set_config_attribute
 .text.bbt_valid_ops
                0x000000000105e024      0x100 drivers/nand/built-in.o
                0x000000000105e024                bbt_valid_ops
 .text.shipped_bbt_invalid_ops
                0x000000000105e124      0x38c drivers/nand/built-in.o
                0x000000000105e124                shipped_bbt_invalid_ops
 .text.shipped_bbt_valid_ops
                0x000000000105e4b0      0x334 drivers/nand/built-in.o
                0x000000000105e4b0                shipped_bbt_valid_ops
 .text.amlnand_get_dev_configs
                0x000000000105e7e4      0x588 drivers/nand/built-in.o
                0x000000000105e7e4                amlnand_get_dev_configs
 .text.readretry_init_sandisk
                0x000000000105ed6c      0x1ac drivers/nand/built-in.o
 .text.enslc_enter_sandisk
                0x000000000105ef18       0x24 drivers/nand/built-in.o
 .text.set_a19_reg_value_sandisk
                0x000000000105ef3c      0x130 drivers/nand/built-in.o
 .text.set_reg_value_sandisk
                0x000000000105f06c      0x1d0 drivers/nand/built-in.o
 .text.readretry_handle_sandisk
                0x000000000105f23c      0x10c drivers/nand/built-in.o
 .text.readretry_handle_toshiba
                0x000000000105f348      0x2c8 drivers/nand/built-in.o
 .text.readretry_exit_sandisk
                0x000000000105f610      0x10c drivers/nand/built-in.o
 .text.readretry_exit_toshiba
                0x000000000105f71c      0x14c drivers/nand/built-in.o
 .text.set_reg_value_micron
                0x000000000105f868      0x1dc drivers/nand/built-in.o
 .text.readretry_handle_intel
                0x000000000105fa44       0xfc drivers/nand/built-in.o
 .text.readretry_handle_micron
                0x000000000105fb40       0xa0 drivers/nand/built-in.o
 .text.set_reg_value_samsung
                0x000000000105fbe0      0x170 drivers/nand/built-in.o
 .text.readretry_handle_samsung
                0x000000000105fd50       0xa0 drivers/nand/built-in.o
 .text.set_reg_value_hynix
                0x000000000105fdf0      0x134 drivers/nand/built-in.o
 .text.readretry_handle_hynix
                0x000000000105ff24      0x154 drivers/nand/built-in.o
 .text.readretry_set_def_val_hynix
                0x0000000001060078       0xec drivers/nand/built-in.o
 .text.get_reg_value_hynix
                0x0000000001060164      0x130 drivers/nand/built-in.o
 .text.enslc_init_hynix
                0x0000000001060294       0xc0 drivers/nand/built-in.o
 .text.readretry_exit_intel
                0x0000000001060354       0xd0 drivers/nand/built-in.o
 .text.readretry_exit_micron
                0x0000000001060424       0xa0 drivers/nand/built-in.o
 .text.readretry_exit_samsung
                0x00000000010604c4       0xa0 drivers/nand/built-in.o
 .text.enslc_exit_hynix
                0x0000000001060564      0x14c drivers/nand/built-in.o
 .text.enslc_enter_hynix
                0x00000000010606b0      0x110 drivers/nand/built-in.o
 .text.readretry_init_hynix
                0x00000000010607c0      0xa9c drivers/nand/built-in.o
 .text.aml_nand_sandisk_A19_set_LMFLGFIX_NEXT
                0x000000000106125c      0x210 drivers/nand/built-in.o
                0x000000000106125c                aml_nand_sandisk_A19_set_LMFLGFIX_NEXT
 .text.readretry_handle_a19_sandisk
                0x000000000106146c      0x224 drivers/nand/built-in.o
 .text.aml_nand_sandisk_A19_reset_LMFLGFIX_NEXT
                0x0000000001061690      0x2ac drivers/nand/built-in.o
                0x0000000001061690                aml_nand_sandisk_A19_reset_LMFLGFIX_NEXT
 .text.readretry_exit_a19_sandisk
                0x000000000106193c       0xe8 drivers/nand/built-in.o
 .text.amlnand_set_readretry_slc_para
                0x0000000001061a24     0x1244 drivers/nand/built-in.o
                0x0000000001061a24                amlnand_set_readretry_slc_para
 .text.roomboot_nand_read
                0x0000000001062c68      0x5c4 drivers/nand/built-in.o
                0x0000000001062c68                roomboot_nand_read
 .text.roomboot_nand_write
                0x000000000106322c      0x87c drivers/nand/built-in.o
                0x000000000106322c                roomboot_nand_write
 .text.amlnf_dump_chipinfo
                0x0000000001063aa8        0xc drivers/nand/built-in.o
                0x0000000001063aa8                amlnf_dump_chipinfo
 .text.amlnf_get_chip_size
                0x0000000001063ab4       0x20 drivers/nand/built-in.o
                0x0000000001063ab4                amlnf_get_chip_size
 .text.amlnand_dump_page
                0x0000000001063ad4       0xe8 drivers/nand/built-in.o
                0x0000000001063ad4                amlnand_dump_page
 .text.nand_read_ops
                0x0000000001063bbc      0x150 drivers/nand/built-in.o
                0x0000000001063bbc                nand_read_ops
 .text.nand_write_ops
                0x0000000001063d0c      0x168 drivers/nand/built-in.o
                0x0000000001063d0c                nand_write_ops
 .text.amlnf_erase_ops
                0x0000000001063e74      0x314 drivers/nand/built-in.o
                0x0000000001063e74                amlnf_erase_ops
 .text.amlnf_markbad_reserved_ops
                0x0000000001064188       0xe0 drivers/nand/built-in.o
                0x0000000001064188                amlnf_markbad_reserved_ops
 .text.dw_write_hwaddr
                0x0000000001064268       0x44 drivers/net/built-in.o
 .text.dw_eth_halt
                0x00000000010642ac       0x38 drivers/net/built-in.o
 .text.dw_eth_recv
                0x00000000010642e4       0xb8 drivers/net/built-in.o
 .text.dw_eth_send
                0x000000000106439c       0xe8 drivers/net/built-in.o
 .text.dw_mdio_write
                0x0000000001064484       0x74 drivers/net/built-in.o
 .text.dw_mdio_read
                0x00000000010644f8       0x70 drivers/net/built-in.o
 .text.do_phyreg
                0x0000000001064568      0x1e8 drivers/net/built-in.o
 .text.do_macreg
                0x0000000001064750      0x1c0 drivers/net/built-in.o
 .text.do_cbusreg
                0x0000000001064910       0xf4 drivers/net/built-in.o
 .text.dw_eth_init
                0x0000000001064a04      0x284 drivers/net/built-in.o
 .text.designware_initialize
                0x0000000001064c88      0x1fc drivers/net/built-in.o
                0x0000000001064c88                designware_initialize
 .text.genphy_shutdown
                0x0000000001064e84        0x8 drivers/net/phy/built-in.o
                0x0000000001064e84                genphy_shutdown
 .text.generic_ffs
                0x0000000001064e8c       0x60 drivers/net/phy/built-in.o
 .text.phy_device_create
                0x0000000001064eec      0x108 drivers/net/phy/built-in.o
 .text.get_phy_device_by_mask
                0x0000000001064ff4      0x178 drivers/net/phy/built-in.o
 .text.genphy_restart_aneg
                0x000000000106516c       0x60 drivers/net/phy/built-in.o
                0x000000000106516c                genphy_restart_aneg
 .text.genphy_config_aneg
                0x00000000010651cc      0x214 drivers/net/phy/built-in.o
                0x00000000010651cc                genphy_config_aneg
 .text.genphy_config
                0x00000000010653e0      0x104 drivers/net/phy/built-in.o
                0x00000000010653e0                genphy_config
 .text.genphy_update_link
                0x00000000010654e4      0x154 drivers/net/phy/built-in.o
                0x00000000010654e4                genphy_update_link
 .text.genphy_parse_link
                0x0000000001065638      0x1b0 drivers/net/phy/built-in.o
                0x0000000001065638                genphy_parse_link
 .text.genphy_startup
                0x00000000010657e8       0x2c drivers/net/phy/built-in.o
                0x00000000010657e8                genphy_startup
 .text.phy_init
                0x0000000001065814        0x8 drivers/net/phy/built-in.o
                0x0000000001065814                phy_init
 .text.phy_reset
                0x000000000106581c       0xb4 drivers/net/phy/built-in.o
                0x000000000106581c                phy_reset
 .text.phy_find_by_mask
                0x00000000010658d0       0x54 drivers/net/phy/built-in.o
                0x00000000010658d0                phy_find_by_mask
 .text.phy_connect_dev
                0x0000000001065924       0x4c drivers/net/phy/built-in.o
                0x0000000001065924                phy_connect_dev
 .text.phy_startup
                0x0000000001065970       0x28 drivers/net/phy/built-in.o
                0x0000000001065970                phy_startup
 .text.board_phy_config
                0x0000000001065998       0x28 drivers/net/phy/built-in.o
                0x0000000001065998                board_phy_config
 .text.phy_config
                0x00000000010659c0       0x18 drivers/net/phy/built-in.o
                0x00000000010659c0                phy_config
 .text.phy_shutdown
                0x00000000010659d8       0x24 drivers/net/phy/built-in.o
                0x00000000010659d8                phy_shutdown
 .text.serial_stub_start
                0x00000000010659fc       0x1c drivers/serial/built-in.o
 .text.serial_stub_stop
                0x0000000001065a18       0x1c drivers/serial/built-in.o
 .text.serial_stub_putc
                0x0000000001065a34       0x20 drivers/serial/built-in.o
 .text.serial_stub_puts
                0x0000000001065a54       0x20 drivers/serial/built-in.o
 .text.serial_stub_getc
                0x0000000001065a74       0x1c drivers/serial/built-in.o
                0x0000000001065a74                serial_stub_getc
 .text.serial_stub_tstc
                0x0000000001065a90       0x1c drivers/serial/built-in.o
                0x0000000001065a90                serial_stub_tstc
 .text.get_current
                0x0000000001065aac       0x3c drivers/serial/built-in.o
 .text.serial_null
                0x0000000001065ae8        0x4 drivers/serial/built-in.o
                0x0000000001065ae8                jz_serial_initialize
                0x0000000001065ae8                bfin_serial_initialize
                0x0000000001065ae8                p3mx_serial_initialize
                0x0000000001065ae8                leon2_serial_initialize
                0x0000000001065ae8                leon3_serial_initialize
                0x0000000001065ae8                amirix_serial_initialize
                0x0000000001065ae8                marvell_serial_initialize
                0x0000000001065ae8                cpci750_serial_initialize
                0x0000000001065ae8                ns16550_serial_initialize
                0x0000000001065ae8                asc_serial_initialize
                0x0000000001065ae8                altera_serial_initialize
                0x0000000001065ae8                oc_serial_initialize
                0x0000000001065ae8                sh_serial_initialize
                0x0000000001065ae8                mxs_auart_initialize
                0x0000000001065ae8                arm_dcc_initialize
                0x0000000001065ae8                bmw_serial_initialize
                0x0000000001065ae8                arc_serial_initialize
                0x0000000001065ae8                mcf_serial_initialize
                0x0000000001065ae8                lh7a40x_serial_initialize
                0x0000000001065ae8                evb64260_serial_initialize
                0x0000000001065ae8                lpc32xx_serial_initialize
                0x0000000001065ae8                max3100_serial_initialize
                0x0000000001065ae8                mpc85xx_serial_initialize
                0x0000000001065ae8                imx_serial_initialize
                0x0000000001065ae8                bfin_jtag_initialize
                0x0000000001065ae8                cogent_serial_initialize
                0x0000000001065ae8                clps7111_serial_initialize
                0x0000000001065ae8                ml2_serial_initialize
                0x0000000001065ae8                sandbox_serial_initialize
                0x0000000001065ae8                s3c24xx_serial_initialize
                0x0000000001065ae8                sconsole_serial_initialize
                0x0000000001065ae8                uartlite_serial_initialize
                0x0000000001065ae8                au1x00_serial_initialize
                0x0000000001065ae8                pxa_serial_initialize
                0x0000000001065ae8                atmel_serial_initialize
                0x0000000001065ae8                pl01x_serial_initialize
                0x0000000001065ae8                altera_jtag_serial_initialize
                0x0000000001065ae8                mpc512x_serial_initialize
                0x0000000001065ae8                s5p_serial_initialize
                0x0000000001065ae8                zynq_serial_initialize
                0x0000000001065ae8                ks8695_serial_initialize
                0x0000000001065ae8                sa1100_serial_initialize
                0x0000000001065ae8                mpc8260_scc_serial_initialize
                0x0000000001065ae8                mxc_serial_initialize
                0x0000000001065ae8                iop480_serial_initialize
                0x0000000001065ae8                mpc8xx_serial_initialize
                0x0000000001065ae8                mpc8260_smc_serial_initialize
                0x0000000001065ae8                mpc5xx_serial_initialize
 .text.serial_stdio_init
                0x0000000001065aec       0xb0 drivers/serial/built-in.o
                0x0000000001065aec                serial_stdio_init
 .text.serial_assign
                0x0000000001065b9c       0x58 drivers/serial/built-in.o
                0x0000000001065b9c                serial_assign
 .text.serial_initialize
                0x0000000001065bf4       0xd4 drivers/serial/built-in.o
                0x0000000001065bf4                serial_initialize
 .text.serial_init
                0x0000000001065cc8       0x14 drivers/serial/built-in.o
                0x0000000001065cc8                serial_init
 .text.serial_setbrg
                0x0000000001065cdc       0x1c drivers/serial/built-in.o
                0x0000000001065cdc                serial_setbrg
 .text.on_baudrate
                0x0000000001065cf8      0x114 drivers/serial/built-in.o
 .text.serial_getc
                0x0000000001065e0c       0x1c drivers/serial/built-in.o
                0x0000000001065e0c                serial_getc
 .text.serial_tstc
                0x0000000001065e28       0x1c drivers/serial/built-in.o
                0x0000000001065e28                serial_tstc
 .text.serial_putc
                0x0000000001065e44       0x2c drivers/serial/built-in.o
                0x0000000001065e44                serial_putc
 .text.serial_puts
                0x0000000001065e70       0x2c drivers/serial/built-in.o
                0x0000000001065e70                serial_puts
 .text.serial_putc_port
                0x0000000001065e9c       0x48 drivers/serial/built-in.o
 .text.serial_getc_port
                0x0000000001065ee4       0x40 drivers/serial/built-in.o
 .text.serial_puts_port
                0x0000000001065f24       0x38 drivers/serial/built-in.o
 .text.uart_UART_PORT_AO_getc
                0x0000000001065f5c        0xc drivers/serial/built-in.o
 .text.uart_UART_PORT_AO_tstc
                0x0000000001065f68       0x14 drivers/serial/built-in.o
 .text.uart_UART_PORT_AO_putc
                0x0000000001065f7c       0x10 drivers/serial/built-in.o
 .text.uart_UART_PORT_AO_puts
                0x0000000001065f8c       0x10 drivers/serial/built-in.o
 .text.serial_setbrg_port
                0x0000000001065f9c       0x4c drivers/serial/built-in.o
 .text.uart_UART_PORT_AO_setbrg
                0x0000000001065fe8        0xc drivers/serial/built-in.o
 .text.serial_init_port
                0x0000000001065ff4       0x98 drivers/serial/built-in.o
 .text.uart_UART_PORT_AO_init
                0x000000000106608c       0x20 drivers/serial/built-in.o
 .text.default_serial_console
                0x00000000010660ac        0xc drivers/serial/built-in.o
                0x00000000010660ac                default_serial_console
 .text.usb_ep_autoconfig
                0x00000000010660b8      0x1f4 drivers/usb/gadget/built-in.o
                0x00000000010660b8                usb_ep_autoconfig
 .text.usb_ep_autoconfig_reset
                0x00000000010662ac       0x30 drivers/usb/gadget/built-in.o
                0x00000000010662ac                usb_ep_autoconfig_reset
 .text.usb_descriptor_fillbuf
                0x00000000010662dc       0x7c drivers/usb/gadget/built-in.o
                0x00000000010662dc                usb_descriptor_fillbuf
 .text.usb_gadget_get_string
                0x0000000001066358      0x198 drivers/usb/gadget/built-in.o
                0x0000000001066358                usb_gadget_get_string
 .text.collect_langs
                0x00000000010664f0       0x48 drivers/usb/gadget/built-in.o
 .text.composite_setup_complete
                0x0000000001066538        0x4 drivers/usb/gadget/built-in.o
 .text.composite_suspend
                0x000000000106653c       0x84 drivers/usb/gadget/built-in.o
 .text.composite_resume
                0x00000000010665c0       0x80 drivers/usb/gadget/built-in.o
 .text.lookup_string
                0x0000000001066640       0x68 drivers/usb/gadget/built-in.o
 .text.composite_unbind
                0x00000000010666a8      0x10c drivers/usb/gadget/built-in.o
 .text.g_dnl_unbind
                0x00000000010667b4       0x48 drivers/usb/gadget/built-in.o
 .text.composite_bind
                0x00000000010667fc      0x130 drivers/usb/gadget/built-in.o
 .text.g_dnl_do_config
                0x000000000106692c       0x70 drivers/usb/gadget/built-in.o
 .text.reset_config.isra.7
                0x000000000106699c       0x5c drivers/usb/gadget/built-in.o
 .text.composite_disconnect
                0x00000000010669f8       0x48 drivers/usb/gadget/built-in.o
 .text.composite_setup
                0x0000000001066a40      0x6c8 drivers/usb/gadget/built-in.o
 .text.usb_add_function
                0x0000000001067108       0xc4 drivers/usb/gadget/built-in.o
                0x0000000001067108                usb_add_function
 .text.usb_interface_id
                0x00000000010671cc       0x2c drivers/usb/gadget/built-in.o
                0x00000000010671cc                usb_interface_id
 .text.usb_add_config
                0x00000000010671f8       0xdc drivers/usb/gadget/built-in.o
                0x00000000010671f8                usb_add_config
 .text.usb_string_id
                0x00000000010672d4       0x28 drivers/usb/gadget/built-in.o
                0x00000000010672d4                usb_string_id
 .text.usb_composite_register
                0x00000000010672fc       0x54 drivers/usb/gadget/built-in.o
                0x00000000010672fc                usb_composite_register
 .text.usb_composite_unregister
                0x0000000001067350       0x3c drivers/usb/gadget/built-in.o
                0x0000000001067350                usb_composite_unregister
 .text.g_dnl_set_serialnumber
                0x000000000106738c       0x64 drivers/usb/gadget/built-in.o
                0x000000000106738c                g_dnl_set_serialnumber
 .text.get_usid_string
                0x00000000010673f0       0x64 drivers/usb/gadget/built-in.o
                0x00000000010673f0                get_usid_string
 .text.g_dnl_bind_fixup
                0x0000000001067454        0x8 drivers/usb/gadget/built-in.o
                0x0000000001067454                g_dnl_bind_fixup
 .text.g_dnl_get_board_bcd_device_number
                0x000000000106745c        0x4 drivers/usb/gadget/built-in.o
                0x000000000106745c                g_dnl_get_board_bcd_device_number
 .text.g_dnl_bind
                0x0000000001067460      0x150 drivers/usb/gadget/built-in.o
 .text.g_dnl_detach
                0x00000000010675b0        0xc drivers/usb/gadget/built-in.o
                0x00000000010675b0                g_dnl_detach
 .text.g_dnl_trigger_detach
                0x00000000010675bc       0x10 drivers/usb/gadget/built-in.o
                0x00000000010675bc                g_dnl_trigger_detach
 .text.g_dnl_clear_detach
                0x00000000010675cc        0xc drivers/usb/gadget/built-in.o
                0x00000000010675cc                g_dnl_clear_detach
 .text.g_dnl_register
                0x00000000010675d8       0x84 drivers/usb/gadget/built-in.o
                0x00000000010675d8                g_dnl_register
 .text.g_dnl_unregister
                0x000000000106765c        0xc drivers/usb/gadget/built-in.o
                0x000000000106765c                g_dnl_unregister
 .text.fastboot_start_ep
                0x0000000001067668       0x88 drivers/usb/gadget/built-in.o
 .text.fastboot_unbind
                0x00000000010676f0       0x18 drivers/usb/gadget/built-in.o
 .text.fastboot_add
                0x0000000001067708       0xf0 drivers/usb/gadget/built-in.o
 .text.fastboot_disable
                0x00000000010677f8       0x8c drivers/usb/gadget/built-in.o
 .text.fastboot_complete
                0x0000000001067884       0x28 drivers/usb/gadget/built-in.o
 .text.compl_do_reboot_bootloader
                0x00000000010678ac       0x10 drivers/usb/gadget/built-in.o
 .text.do_exit_on_complete
                0x00000000010678bc        0x4 drivers/usb/gadget/built-in.o
 .text.do_bootm_on_complete
                0x00000000010678c0       0x7c drivers/usb/gadget/built-in.o
 .text.compl_do_reset
                0x000000000106793c       0x14 drivers/usb/gadget/built-in.o
 .text.fastboot_tx_write_str
                0x0000000001067950       0x84 drivers/usb/gadget/built-in.o
 .text.cb_devices
                0x00000000010679d4       0x38 drivers/usb/gadget/built-in.o
 .text.cb_flashall
                0x0000000001067a0c       0x50 drivers/usb/gadget/built-in.o
 .text.cb_continue
                0x0000000001067a5c       0x28 drivers/usb/gadget/built-in.o
 .text.cb_boot  0x0000000001067a84       0x28 drivers/usb/gadget/built-in.o
 .text.strcmp_l1
                0x0000000001067aac       0x48 drivers/usb/gadget/built-in.o
 .text.rx_handler_command
                0x0000000001067af4      0x118 drivers/usb/gadget/built-in.o
 .text.fastboot_bind
                0x0000000001067c0c       0xbc drivers/usb/gadget/built-in.o
 .text.fastboot_setup
                0x0000000001067cc8       0xb0 drivers/usb/gadget/built-in.o
 .text.fastboot_set_alt
                0x0000000001067d78      0x10c drivers/usb/gadget/built-in.o
 .text.cb_set_active
                0x0000000001067e84       0xd0 drivers/usb/gadget/built-in.o
 .text.cb_erase
                0x0000000001067f54       0x88 drivers/usb/gadget/built-in.o
 .text.cb_flash
                0x0000000001067fdc       0x94 drivers/usb/gadget/built-in.o
 .text.cb_reboot
                0x0000000001068070       0x70 drivers/usb/gadget/built-in.o
 .text.rx_handler_dl_image
                0x00000000010680e0      0x170 drivers/usb/gadget/built-in.o
 .text.ddr_size_usable
                0x0000000001068250       0x24 drivers/usb/gadget/built-in.o
                0x0000000001068250                ddr_size_usable
 .text.cb_download
                0x0000000001068274      0x12c drivers/usb/gadget/built-in.o
 .text.cb_getvar
                0x00000000010683a0      0x2dc drivers/usb/gadget/built-in.o
 .text.ep_disable
                0x000000000106867c        0xc drivers/usb/gadget/built-in.o
 .text.ep_dequeue
                0x0000000001068688       0x5c drivers/usb/gadget/built-in.o
 .text.dwc_otg_pcd_free_request
                0x00000000010686e4       0x1c drivers/usb/gadget/built-in.o
 .text.dwc_otg_pcd_alloc_request
                0x0000000001068700       0x60 drivers/usb/gadget/built-in.o
 .text.ep_enable
                0x0000000001068760      0x118 drivers/usb/gadget/built-in.o
 .text.ep_halt  0x0000000001068878      0x108 drivers/usb/gadget/built-in.o
 .text.f_set_usb_phy_config
                0x0000000001068980       0xcc drivers/usb/gadget/built-in.o
                0x0000000001068980                f_set_usb_phy_config
 .text.f_dwc_core_init
                0x0000000001068a4c      0x2d8 drivers/usb/gadget/built-in.o
                0x0000000001068a4c                f_dwc_core_init
 .text.pcd_queue
                0x0000000001068d24       0x20 drivers/usb/gadget/built-in.o
                0x0000000001068d24                pcd_queue
 .text.ep_queue
                0x0000000001068d44      0x104 drivers/usb/gadget/built-in.o
 .text.gadget_add_eps
                0x0000000001068e48       0x94 drivers/usb/gadget/built-in.o
                0x0000000001068e48                gadget_add_eps
 .text.f_usb_pcd_init
                0x0000000001068edc        0x4 drivers/usb/gadget/built-in.o
                0x0000000001068edc                f_usb_pcd_init
 .text.usb_gadget_register_driver
                0x0000000001068ee0      0x228 drivers/usb/gadget/built-in.o
                0x0000000001068ee0                usb_gadget_register_driver
 .text.usb_gadget_unregister_driver
                0x0000000001069108       0x4c drivers/usb/gadget/built-in.o
                0x0000000001069108                usb_gadget_unregister_driver
 .text.usb_gadget_handle_interrupts
                0x0000000001069154        0x4 drivers/usb/gadget/built-in.o
                0x0000000001069154                usb_gadget_handle_interrupts
 .text.dwc_otg_ep_start_transfer
                0x0000000001069158       0xf0 drivers/usb/gadget/built-in.o
 .text.ep0_out_start
                0x0000000001069248       0x5c drivers/usb/gadget/built-in.o
 .text.do_setup_status_phase.constprop.5
                0x00000000010692a4       0x68 drivers/usb/gadget/built-in.o
 .text.ep0_complete_request.constprop.4
                0x000000000106930c       0xbc drivers/usb/gadget/built-in.o
 .text.dwc_otg_flush_fifo
                0x00000000010693c8       0x94 drivers/usb/gadget/built-in.o
                0x00000000010693c8                dwc_otg_flush_fifo
 .text.dwc_otg_bulk_ep_activate
                0x000000000106945c       0x78 drivers/usb/gadget/built-in.o
                0x000000000106945c                dwc_otg_bulk_ep_activate
 .text.f_dwc_otg_ep_req_start
                0x00000000010694d4      0x164 drivers/usb/gadget/built-in.o
                0x00000000010694d4                f_dwc_otg_ep_req_start
 .text.handle_ep0
                0x0000000001069638      0x1b8 drivers/usb/gadget/built-in.o
 .text.f_dwc_pcd_irq
                0x00000000010697f0      0x8a0 drivers/usb/gadget/built-in.o
                0x00000000010697f0                f_dwc_pcd_irq
 .text.handshake
                0x000000000106a090       0x74 drivers/usb/host/built-in.o
 .text.xhci_configure_endpoints
                0x000000000106a104      0x10c drivers/usb/host/built-in.o
 .text.xhci_get_ep_index
                0x000000000106a210       0x30 drivers/usb/host/built-in.o
 .text.xhci_reset
                0x000000000106a240       0xac drivers/usb/host/built-in.o
                0x000000000106a240                xhci_reset
 .text.usb_alloc_device
                0x000000000106a2ec       0xdc drivers/usb/host/built-in.o
                0x000000000106a2ec                usb_alloc_device
 .text.xhci_check_maxpacket
                0x000000000106a3c8       0xdc drivers/usb/host/built-in.o
                0x000000000106a3c8                xhci_check_maxpacket
 .text.submit_int_msg
                0x000000000106a4a4       0x44 drivers/usb/host/built-in.o
                0x000000000106a4a4                submit_int_msg
 .text.submit_bulk_msg
                0x000000000106a4e8       0x44 drivers/usb/host/built-in.o
                0x000000000106a4e8                submit_bulk_msg
 .text.submit_control_msg
                0x000000000106a52c      0x98c drivers/usb/host/built-in.o
                0x000000000106a52c                submit_control_msg
 .text.usb_lowlevel_init
                0x000000000106aeb8      0x1a0 drivers/usb/host/built-in.o
                0x000000000106aeb8                usb_lowlevel_init
 .text.usb_lowlevel_stop
                0x000000000106b058       0x70 drivers/usb/host/built-in.o
                0x000000000106b058                usb_lowlevel_stop
 .text.xhci_link_segments
                0x000000000106b0c8       0x38 drivers/usb/host/built-in.o
 .text.xhci_ring_free
                0x000000000106b100       0x9c drivers/usb/host/built-in.o
 .text.xhci_flush_cache
                0x000000000106b19c       0x54 drivers/usb/host/built-in.o
                0x000000000106b19c                xhci_flush_cache
 .text.xhci_malloc
                0x000000000106b1f0       0x7c drivers/usb/host/built-in.o
 .text.xhci_segment_alloc
                0x000000000106b26c       0x68 drivers/usb/host/built-in.o
 .text.xhci_alloc_container_ctx.isra.5
                0x000000000106b2d4       0xe4 drivers/usb/host/built-in.o
 .text.xhci_inval_cache
                0x000000000106b3b8       0x54 drivers/usb/host/built-in.o
                0x000000000106b3b8                xhci_inval_cache
 .text.xhci_cleanup
                0x000000000106b40c       0xdc drivers/usb/host/built-in.o
                0x000000000106b40c                xhci_cleanup
 .text.xhci_ring_alloc
                0x000000000106b4e8      0x124 drivers/usb/host/built-in.o
                0x000000000106b4e8                xhci_ring_alloc
 .text.xhci_alloc_virt_device
                0x000000000106b60c       0xfc drivers/usb/host/built-in.o
                0x000000000106b60c                xhci_alloc_virt_device
 .text.xhci_mem_init
                0x000000000106b708      0x1b8 drivers/usb/host/built-in.o
                0x000000000106b708                xhci_mem_init
 .text.xhci_get_input_control_ctx
                0x000000000106b8c0       0x4c drivers/usb/host/built-in.o
                0x000000000106b8c0                xhci_get_input_control_ctx
 .text.xhci_get_slot_ctx
                0x000000000106b90c       0x3c drivers/usb/host/built-in.o
                0x000000000106b90c                xhci_get_slot_ctx
 .text.xhci_get_ep_ctx
                0x000000000106b948       0x40 drivers/usb/host/built-in.o
                0x000000000106b948                xhci_get_ep_ctx
 .text.xhci_endpoint_copy
                0x000000000106b988       0x70 drivers/usb/host/built-in.o
                0x000000000106b988                xhci_endpoint_copy
 .text.xhci_slot_copy
                0x000000000106b9f8       0x58 drivers/usb/host/built-in.o
                0x000000000106b9f8                xhci_slot_copy
 .text.xhci_setup_addressable_virt_dev
                0x000000000106ba50      0x1c8 drivers/usb/host/built-in.o
                0x000000000106ba50                xhci_setup_addressable_virt_dev
 .text.record_transfer_result
                0x000000000106bc18       0xac drivers/usb/host/built-in.o
 .text.queue_trb
                0x000000000106bcc4      0x154 drivers/usb/host/built-in.o
 .text.prepare_ring
                0x000000000106be18      0x14c drivers/usb/host/built-in.o
 .text.xhci_queue_command
                0x000000000106bf64       0xc0 drivers/usb/host/built-in.o
                0x000000000106bf64                xhci_queue_command
 .text.xhci_acknowledge_event
                0x000000000106c024       0x88 drivers/usb/host/built-in.o
                0x000000000106c024                xhci_acknowledge_event
 .text.xhci_wait_for_event
                0x000000000106c0ac      0x120 drivers/usb/host/built-in.o
                0x000000000106c0ac                xhci_wait_for_event
 .text.abort_td
                0x000000000106c1cc      0x194 drivers/usb/host/built-in.o
 .text.xhci_bulk_tx
                0x000000000106c360      0x3ac drivers/usb/host/built-in.o
                0x000000000106c360                xhci_bulk_tx
 .text.xhci_ctrl_tx
                0x000000000106c70c      0x390 drivers/usb/host/built-in.o
                0x000000000106c70c                xhci_ctrl_tx
 .text.xhci_hcd_init
                0x000000000106ca9c      0x2fc drivers/usb/host/built-in.o
                0x000000000106ca9c                xhci_hcd_init
 .text.xhci_hcd_stop
                0x000000000106cd98        0x4 drivers/usb/host/built-in.o
                0x000000000106cd98                xhci_hcd_stop
 .text.fs_probe_unsupported
                0x000000000106cd9c       0x20 fs/built-in.o
 .text.fs_ls_unsupported
                0x000000000106cdbc        0x8 fs/built-in.o
 .text.fs_exists_unsupported
                0x000000000106cdc4        0x8 fs/built-in.o
 .text.fs_size_unsupported
                0x000000000106cdcc        0x8 fs/built-in.o
 .text.fs_read_unsupported
                0x000000000106cdd4        0x8 fs/built-in.o
 .text.fs_write_unsupported
                0x000000000106cddc        0x8 fs/built-in.o
 .text.fs_close_unsupported
                0x000000000106cde4        0x4 fs/built-in.o
 .text.fs_uuid_unsupported
                0x000000000106cde8        0x8 fs/built-in.o
 .text.fs_get_info
                0x000000000106cdf0       0x34 fs/built-in.o
 .text.fs_close
                0x000000000106ce24       0x34 fs/built-in.o
 .text.fs_set_blk_dev
                0x000000000106ce58       0xbc fs/built-in.o
                0x000000000106ce58                fs_set_blk_dev
 .text.fs_ls    0x000000000106cf14       0x48 fs/built-in.o
                0x000000000106cf14                fs_ls
 .text.fs_exists
                0x000000000106cf5c       0x44 fs/built-in.o
                0x000000000106cf5c                fs_exists
 .text.fs_size  0x000000000106cfa0       0x4c fs/built-in.o
                0x000000000106cfa0                fs_size
 .text.fs_read  0x000000000106cfec       0x94 fs/built-in.o
                0x000000000106cfec                fs_read
 .text.do_size  0x000000000106d080       0x74 fs/built-in.o
                0x000000000106d080                do_size
 .text.do_load  0x000000000106d0f4      0x208 fs/built-in.o
                0x000000000106d0f4                do_load
 .text.do_ls    0x000000000106d2fc       0x84 fs/built-in.o
                0x000000000106d2fc                do_ls
 .text.file_exists
                0x000000000106d380       0x3c fs/built-in.o
                0x000000000106d380                file_exists
 .text.get_fs   0x000000000106d3bc        0xc fs/built-in.o
                0x000000000106d3bc                get_fs
 .text.ext4fs_free_node
                0x000000000106d3c8       0x24 fs/built-in.o
                0x000000000106d3c8                ext4fs_free_node
 .text.ext4fs_read_file
                0x000000000106d3ec      0x320 fs/built-in.o
                0x000000000106d3ec                ext4fs_read_file
 .text.ext4fs_ls
                0x000000000106d70c       0x7c fs/built-in.o
                0x000000000106d70c                ext4fs_ls
 .text.ext4fs_exists
                0x000000000106d788       0x20 fs/built-in.o
                0x000000000106d788                ext4fs_exists
 .text.ext4fs_size
                0x000000000106d7a8        0x4 fs/built-in.o
                0x000000000106d7a8                ext4fs_size
 .text.ext4fs_read
                0x000000000106d7ac       0x38 fs/built-in.o
                0x000000000106d7ac                ext4fs_read
 .text.ext4fs_probe
                0x000000000106d7e4       0x3c fs/built-in.o
                0x000000000106d7e4                ext4fs_probe
 .text.ext4_read_file
                0x000000000106d820       0x80 fs/built-in.o
                0x000000000106d820                ext4_read_file
 .text.ext4fs_uuid
                0x000000000106d8a0       0x18 fs/built-in.o
                0x000000000106d8a0                ext4fs_uuid
 .text.ext4fs_read_inode
                0x000000000106d8b8      0x104 fs/built-in.o
                0x000000000106d8b8                ext4fs_read_inode
 .text.read_allocated_block
                0x000000000106d9bc      0x984 fs/built-in.o
                0x000000000106d9bc                read_allocated_block
 .text.ext4fs_reinit_global
                0x000000000106e340       0xb4 fs/built-in.o
                0x000000000106e340                ext4fs_reinit_global
 .text.ext4fs_close
                0x000000000106e3f4       0x58 fs/built-in.o
                0x000000000106e3f4                ext4fs_close
 .text.ext4fs_iterate_dir
                0x000000000106e44c      0x284 fs/built-in.o
                0x000000000106e44c                ext4fs_iterate_dir
 .text.ext4fs_find_file1
                0x000000000106e6d0      0x28c fs/built-in.o
 .text.ext4fs_find_file
                0x000000000106e95c       0x74 fs/built-in.o
                0x000000000106e95c                ext4fs_find_file
 .text.ext4fs_open
                0x000000000106e9d0       0xb0 fs/built-in.o
                0x000000000106e9d0                ext4fs_open
 .text.ext4fs_mount
                0x000000000106ea80       0xe0 fs/built-in.o
                0x000000000106ea80                ext4fs_mount
 .text.ext4fs_set_blk_dev
                0x000000000106eb60       0x78 fs/built-in.o
                0x000000000106eb60                ext4fs_set_blk_dev
 .text.ext4fs_devread
                0x000000000106ebd8      0x268 fs/built-in.o
                0x000000000106ebd8                ext4fs_devread
 .text.ext4_read_superblock
                0x000000000106ee40       0x40 fs/built-in.o
                0x000000000106ee40                ext4_read_superblock
 .text.downcase
                0x000000000106ee80       0x2c fs/built-in.o
 .text.disk_read
                0x000000000106eeac       0x58 fs/built-in.o
 .text.dirdelim
                0x000000000106ef04       0x34 fs/built-in.o
 .text.get_fatent
                0x000000000106ef38      0x168 fs/built-in.o
 .text.mkcksum  0x000000000106f0a0       0x54 fs/built-in.o
 .text.get_cluster
                0x000000000106f0f4      0x18c fs/built-in.o
 .text.get_name
                0x000000000106f280       0xd4 fs/built-in.o
 .text.read_bootsectandvi
                0x000000000106f354      0x134 fs/built-in.o
 .text.slot2str
                0x000000000106f488       0xac fs/built-in.o
 .text.get_vfatname
                0x000000000106f534      0x1e4 fs/built-in.o
 .text.fat_set_blk_dev
                0x000000000106f718       0xd0 fs/built-in.o
                0x000000000106f718                fat_set_blk_dev
 .text.do_fat_read_at
                0x000000000106f7e8      0xb14 fs/built-in.o
                0x000000000106f7e8                do_fat_read_at
 .text.do_fat_read
                0x00000000010702fc       0x28 fs/built-in.o
                0x00000000010702fc                do_fat_read
 .text.file_fat_detectfs
                0x0000000001070324      0x148 fs/built-in.o
                0x0000000001070324                file_fat_detectfs
 .text.file_fat_ls
                0x000000000107046c       0x24 fs/built-in.o
                0x000000000107046c                file_fat_ls
 .text.fat_exists
                0x0000000001070490       0x34 fs/built-in.o
                0x0000000001070490                fat_exists
 .text.fat_size
                0x00000000010704c4       0x1c fs/built-in.o
                0x00000000010704c4                fat_size
 .text.file_fat_read_at
                0x00000000010704e0       0x58 fs/built-in.o
                0x00000000010704e0                file_fat_read_at
 .text.fat_read_file
                0x0000000001070538       0x48 fs/built-in.o
                0x0000000001070538                fat_read_file
 .text.fat_close
                0x0000000001070580        0x4 fs/built-in.o
                0x0000000001070580                fat_close
 .text.lzo1x_decompress_safe
                0x0000000001070584      0x628 lib/built-in.o
                0x0000000001070584                lzo1x_decompress_safe
 .text.lzop_decompress
                0x0000000001070bac      0x18c lib/built-in.o
                0x0000000001070bac                lzop_decompress
 .text.zcalloc  0x0000000001070d38        0x8 lib/built-in.o
                0x0000000001070d38                zcalloc
 .text.zcfree   0x0000000001070d40        0x8 lib/built-in.o
                0x0000000001070d40                zcfree
 .text.inflate_fast
                0x0000000001070d48      0x574 lib/built-in.o
                0x0000000001070d48                inflate_fast
 .text.inflate_table
                0x00000000010712bc      0x468 lib/built-in.o
                0x00000000010712bc                inflate_table
 .text.inflateReset
                0x0000000001071724       0x70 lib/built-in.o
                0x0000000001071724                inflateReset
 .text.inflateInit2_
                0x0000000001071794      0x104 lib/built-in.o
                0x0000000001071794                inflateInit2_
 .text.inflateEnd
                0x0000000001071898       0x68 lib/built-in.o
                0x0000000001071898                inflateEnd
 .text.adler32  0x0000000001071900      0x2e4 lib/built-in.o
                0x0000000001071900                adler32
 .text.inflate  0x0000000001071be4     0x1420 lib/built-in.o
                0x0000000001071be4                inflate
 .text.fdt_check_header
                0x0000000001073004       0x74 lib/built-in.o
                0x0000000001073004                fdt_check_header
 .text.fdt_offset_ptr
                0x0000000001073078       0x48 lib/built-in.o
                0x0000000001073078                fdt_offset_ptr
 .text.fdt_next_tag
                0x00000000010730c0       0xf4 lib/built-in.o
                0x00000000010730c0                fdt_next_tag
 .text._fdt_check_node_offset
                0x00000000010731b4       0x3c lib/built-in.o
                0x00000000010731b4                _fdt_check_node_offset
 .text._fdt_check_prop_offset
                0x00000000010731f0       0x3c lib/built-in.o
                0x00000000010731f0                _fdt_check_prop_offset
 .text.fdt_next_node
                0x000000000107322c       0xb8 lib/built-in.o
                0x000000000107322c                fdt_next_node
 .text.fdt_first_subnode
                0x00000000010732e4       0x34 lib/built-in.o
                0x00000000010732e4                fdt_first_subnode
 .text.fdt_next_subnode
                0x0000000001073318       0x58 lib/built-in.o
                0x0000000001073318                fdt_next_subnode
 .text._fdt_find_string
                0x0000000001073370       0x74 lib/built-in.o
                0x0000000001073370                _fdt_find_string
 .text.fdt_move
                0x00000000010733e4       0x64 lib/built-in.o
                0x00000000010733e4                fdt_move
 .text._nextprop
                0x0000000001073448       0x68 lib/built-in.o
 .text.fdt_string
                0x00000000010734b0       0x14 lib/built-in.o
                0x00000000010734b0                fdt_string
 .text.fdt_get_mem_rsv
                0x00000000010734c4       0x68 lib/built-in.o
                0x00000000010734c4                fdt_get_mem_rsv
 .text.fdt_num_mem_rsv
                0x000000000107352c       0x2c lib/built-in.o
                0x000000000107352c                fdt_num_mem_rsv
 .text.fdt_subnode_offset_namelen
                0x0000000001073558       0xd8 lib/built-in.o
                0x0000000001073558                fdt_subnode_offset_namelen
 .text.fdt_subnode_offset
                0x0000000001073630       0x3c lib/built-in.o
                0x0000000001073630                fdt_subnode_offset
 .text.fdt_get_name
                0x000000000107366c       0x84 lib/built-in.o
                0x000000000107366c                fdt_get_name
 .text.fdt_first_property_offset
                0x00000000010736f0       0x38 lib/built-in.o
                0x00000000010736f0                fdt_first_property_offset
 .text.fdt_next_property_offset
                0x0000000001073728       0x38 lib/built-in.o
                0x0000000001073728                fdt_next_property_offset
 .text.fdt_get_property_by_offset
                0x0000000001073760       0x68 lib/built-in.o
                0x0000000001073760                fdt_get_property_by_offset
 .text.fdt_get_property_namelen
                0x00000000010737c8       0xd4 lib/built-in.o
                0x00000000010737c8                fdt_get_property_namelen
 .text.fdt_get_property
                0x000000000107389c       0x44 lib/built-in.o
                0x000000000107389c                fdt_get_property
 .text.fdt_getprop_namelen
                0x00000000010738e0       0x20 lib/built-in.o
                0x00000000010738e0                fdt_getprop_namelen
 .text.fdt_getprop
                0x0000000001073900       0x44 lib/built-in.o
                0x0000000001073900                fdt_getprop
 .text.fdt_get_phandle
                0x0000000001073944       0x80 lib/built-in.o
                0x0000000001073944                fdt_get_phandle
 .text.fdt_get_alias_namelen
                0x00000000010739c4       0x5c lib/built-in.o
                0x00000000010739c4                fdt_get_alias_namelen
 .text.fdt_path_offset
                0x0000000001073a20       0xfc lib/built-in.o
                0x0000000001073a20                fdt_path_offset
 .text.fdt_supernode_atdepth_offset
                0x0000000001073b1c       0xb8 lib/built-in.o
                0x0000000001073b1c                fdt_supernode_atdepth_offset
 .text.fdt_node_depth
                0x0000000001073bd4       0x34 lib/built-in.o
                0x0000000001073bd4                fdt_node_depth
 .text.fdt_node_offset_by_phandle
                0x0000000001073c08       0x80 lib/built-in.o
                0x0000000001073c08                fdt_node_offset_by_phandle
 .text.fdt_stringlist_contains
                0x0000000001073c88       0x98 lib/built-in.o
                0x0000000001073c88                fdt_stringlist_contains
 .text._fdt_blocks_misordered
                0x0000000001073d20       0x60 lib/built-in.o
 .text._fdt_splice
                0x0000000001073d80       0x84 lib/built-in.o
 .text._fdt_splice_mem_rsv
                0x0000000001073e04       0x6c lib/built-in.o
 .text._fdt_splice_struct
                0x0000000001073e70       0x60 lib/built-in.o
 .text._fdt_packblocks
                0x0000000001073ed0       0xcc lib/built-in.o
 .text._fdt_add_property
                0x0000000001073f9c      0x150 lib/built-in.o
 .text._fdt_rw_check_header
                0x00000000010740ec       0x6c lib/built-in.o
 .text.fdt_add_mem_rsv
                0x0000000001074158       0x94 lib/built-in.o
                0x0000000001074158                fdt_add_mem_rsv
 .text.fdt_del_mem_rsv
                0x00000000010741ec       0x7c lib/built-in.o
                0x00000000010741ec                fdt_del_mem_rsv
 .text.fdt_setprop
                0x0000000001074268       0xd8 lib/built-in.o
                0x0000000001074268                fdt_setprop
 .text.fdt_delprop
                0x0000000001074340       0x78 lib/built-in.o
                0x0000000001074340                fdt_delprop
 .text.fdt_add_subnode_namelen
                0x00000000010743b8      0x128 lib/built-in.o
                0x00000000010743b8                fdt_add_subnode_namelen
 .text.fdt_add_subnode
                0x00000000010744e0       0x3c lib/built-in.o
                0x00000000010744e0                fdt_add_subnode
 .text.fdt_del_node
                0x000000000107451c       0x74 lib/built-in.o
                0x000000000107451c                fdt_del_node
 .text.fdt_open_into
                0x0000000001074590      0x1b4 lib/built-in.o
                0x0000000001074590                fdt_open_into
 .text.fdt_strerror
                0x0000000001074744       0x50 lib/built-in.o
                0x0000000001074744                fdt_strerror
 .text._fdt_node_end_offset
                0x0000000001074794       0x44 lib/built-in.o
                0x0000000001074794                _fdt_node_end_offset
 .text.fdt_address_cells
                0x00000000010747d8       0x58 lib/built-in.o
                0x00000000010747d8                fdt_address_cells
 .text.fdt_size_cells
                0x0000000001074830       0x54 lib/built-in.o
                0x0000000001074830                fdt_size_cells
 .text.gzalloc  0x0000000001074884       0x10 lib/built-in.o
                0x0000000001074884                gzalloc
 .text.gzfree   0x0000000001074894        0x8 lib/built-in.o
                0x0000000001074894                gzfree
 .text.zunzip   0x000000000107489c      0x120 lib/built-in.o
                0x000000000107489c                zunzip
 .text.gunzip   0x00000000010749bc       0xc4 lib/built-in.o
                0x00000000010749bc                gunzip
 .text.initcall_run_list
                0x0000000001074a80       0x7c lib/built-in.o
                0x0000000001074a80                initcall_run_list
 .text.lmb_add_region
                0x0000000001074afc      0x1a8 lib/built-in.o
 .text.lmb_init
                0x0000000001074ca4       0x28 lib/built-in.o
                0x0000000001074ca4                lmb_init
 .text.lmb_add  0x0000000001074ccc        0x4 lib/built-in.o
                0x0000000001074ccc                lmb_add
 .text.lmb_free
                0x0000000001074cd0       0xf0 lib/built-in.o
                0x0000000001074cd0                lmb_free
 .text.lmb_reserve
                0x0000000001074dc0        0x8 lib/built-in.o
                0x0000000001074dc0                lmb_reserve
 .text.__lmb_alloc_base
                0x0000000001074dc8      0x124 lib/built-in.o
                0x0000000001074dc8                __lmb_alloc_base
 .text.lmb_alloc_base
                0x0000000001074eec       0x4c lib/built-in.o
                0x0000000001074eec                lmb_alloc_base
 .text.lmb_alloc
                0x0000000001074f38        0x8 lib/built-in.o
                0x0000000001074f38                lmb_alloc
 .text.board_lmb_reserve
                0x0000000001074f40        0x4 lib/built-in.o
                0x0000000001074f40                board_lmb_reserve
 .text.byteReverse
                0x0000000001074f44       0x2c lib/built-in.o
 .text.MD5Transform
                0x0000000001074f70      0xa90 lib/built-in.o
 .text.MD5Update
                0x0000000001075a00      0x11c lib/built-in.o
 .text.MD5Final
                0x0000000001075b1c       0xe8 lib/built-in.o
 .text.md5_wd   0x0000000001075c04       0x78 lib/built-in.o
                0x0000000001075c04                md5_wd
 .text.string_to_ip
                0x0000000001075c7c       0x70 lib/built-in.o
                0x0000000001075c7c                string_to_ip
 .text.qsort    0x0000000001075cec       0xf8 lib/built-in.o
                0x0000000001075cec                qsort
 .text.sha1_process
                0x0000000001075de4     0x1a8c lib/built-in.o
 .text.sha1_update.part.0
                0x0000000001077870       0xf8 lib/built-in.o
 .text.sha1_starts
                0x0000000001077968       0x48 lib/built-in.o
                0x0000000001077968                sha1_starts
 .text.sha1_update
                0x00000000010779b0        0xc lib/built-in.o
                0x00000000010779b0                sha1_update
 .text.sha1_finish
                0x00000000010779bc      0x180 lib/built-in.o
                0x00000000010779bc                sha1_finish
 .text.sha1_csum
                0x0000000001077b3c       0x50 lib/built-in.o
                0x0000000001077b3c                sha1_csum
 .text.sha1_csum_wd
                0x0000000001077b8c       0x50 lib/built-in.o
                0x0000000001077b8c                sha1_csum_wd
 .text.sha256_process
                0x0000000001077bdc     0x28d0 lib/built-in.o
 .text.sha256_update.part.0
                0x000000000107a4ac       0xf4 lib/built-in.o
 .text.sha256_starts
                0x000000000107a5a0       0x6c lib/built-in.o
                0x000000000107a5a0                sha256_starts
 .text.sha256_update
                0x000000000107a60c        0xc lib/built-in.o
                0x000000000107a60c                sha256_update
 .text.sha256_finish
                0x000000000107a618      0x1c0 lib/built-in.o
                0x000000000107a618                sha256_finish
 .text.sha256_csum_wd
                0x000000000107a7d8       0x50 lib/built-in.o
                0x000000000107a7d8                sha256_csum_wd
 .text.cmpkey   0x000000000107a828       0x14 lib/built-in.o
 .text._hdelete.isra.1
                0x000000000107a83c       0x60 lib/built-in.o
 .text.drop_var_from_set.part.2
                0x000000000107a89c       0x6c lib/built-in.o
 .text.match_string.isra.3
                0x000000000107a908       0x68 lib/built-in.o
 .text.hcreate_r
                0x000000000107a970       0xa0 lib/built-in.o
                0x000000000107a970                hcreate_r
 .text.hdestroy_r
                0x000000000107aa10       0x88 lib/built-in.o
                0x000000000107aa10                hdestroy_r
 .text.hsearch_r
                0x000000000107aa98      0x420 lib/built-in.o
                0x000000000107aa98                hsearch_r
 .text.hdelete_r
                0x000000000107aeb8       0xdc lib/built-in.o
                0x000000000107aeb8                hdelete_r
 .text.hexport_r
                0x000000000107af94      0x310 lib/built-in.o
                0x000000000107af94                hexport_r
 .text.himport_r
                0x000000000107b2a4      0x3a8 lib/built-in.o
                0x000000000107b2a4                himport_r
 .text.hwalk_r  0x000000000107b64c       0x70 lib/built-in.o
                0x000000000107b64c                hwalk_r
 .text.display_options
                0x000000000107b6bc       0x28 lib/built-in.o
                0x000000000107b6bc                display_options
 .text.print_size
                0x000000000107b6e4       0xe8 lib/built-in.o
                0x000000000107b6e4                print_size
 .text.print_buffer
                0x000000000107b7cc      0x1f4 lib/built-in.o
                0x000000000107b7cc                print_buffer
 .text.crc32_no_comp
                0x000000000107b9c0       0xd0 lib/built-in.o
                0x000000000107b9c0                crc32_no_comp
 .text.crc32    0x000000000107ba90       0x1c lib/built-in.o
                0x000000000107ba90                crc32
 .text.crc32_wd
                0x000000000107baac        0x4 lib/built-in.o
                0x000000000107baac                crc32_wd
 .text.crc32_wd_buf
                0x000000000107bab0       0x4c lib/built-in.o
                0x000000000107bab0                crc32_wd_buf
 .text.__div64_32
                0x000000000107bafc       0x70 lib/built-in.o
                0x000000000107bafc                __div64_32
 .text.hang     0x000000000107bb6c       0x20 lib/built-in.o
                0x000000000107bb6c                hang
 .text.kmalloc  0x000000000107bb8c        0xc lib/built-in.o
                0x000000000107bb8c                kmalloc
 .text.kzalloc  0x000000000107bb98       0x40 lib/built-in.o
                0x000000000107bb98                kzalloc
 .text.skip_spaces
                0x000000000107bbd8       0x20 lib/built-in.o
                0x000000000107bbd8                skip_spaces
 .text.strim    0x000000000107bbf8       0x60 lib/built-in.o
                0x000000000107bbf8                strim
 .text.strncasecmp
                0x000000000107bc58       0x74 lib/built-in.o
                0x000000000107bc58                strncasecmp
 .text.strcpy   0x000000000107bccc       0x18 lib/built-in.o
                0x000000000107bccc                strcpy
 .text.strncpy  0x000000000107bce4       0x20 lib/built-in.o
                0x000000000107bce4                strncpy
 .text.strcat   0x000000000107bd04       0x2c lib/built-in.o
                0x000000000107bd04                strcat
 .text.strncat  0x000000000107bd30       0x40 lib/built-in.o
                0x000000000107bd30                strncat
 .text.strcmp   0x000000000107bd70       0x28 lib/built-in.o
                0x000000000107bd70                strcmp
 .text.strncmp  0x000000000107bd98       0x38 lib/built-in.o
                0x000000000107bd98                strncmp
 .text.strchr   0x000000000107bdd0       0x24 lib/built-in.o
                0x000000000107bdd0                strchr
 .text.strlen   0x000000000107bdf4       0x1c lib/built-in.o
                0x000000000107bdf4                strlen
 .text.strrchr  0x000000000107be10       0x54 lib/built-in.o
                0x000000000107be10                strrchr
 .text.strnlen  0x000000000107be64       0x28 lib/built-in.o
                0x000000000107be64                strnlen
 .text.strdup   0x000000000107be8c       0x48 lib/built-in.o
                0x000000000107be8c                strdup
 .text.strpbrk  0x000000000107bed4       0x34 lib/built-in.o
                0x000000000107bed4                strpbrk
 .text.strsep   0x000000000107bf08       0x40 lib/built-in.o
                0x000000000107bf08                strsep
 .text.memset   0x000000000107bf48       0x68 lib/built-in.o
                0x000000000107bf48                memset
 .text.memcpy   0x000000000107bfb0       0x64 lib/built-in.o
                0x000000000107bfb0                memcpy
 .text.memmove  0x000000000107c014       0x5c lib/built-in.o
                0x000000000107c014                memmove
 .text.memcmp   0x000000000107c070       0x30 lib/built-in.o
                0x000000000107c070                memcmp
 .text.strstr   0x000000000107c0a0       0x8c lib/built-in.o
                0x000000000107c0a0                strstr
 .text.memchr   0x000000000107c12c       0x30 lib/built-in.o
                0x000000000107c12c                memchr
 .text.tick_to_time
                0x000000000107c15c       0x4c lib/built-in.o
 .text.get_ticks
                0x000000000107c1a8       0x3c lib/built-in.o
                0x000000000107c1a8                get_ticks
 .text.timer_init
                0x000000000107c1e4        0x8 lib/built-in.o
                0x000000000107c1e4                timer_init
 .text.get_timer
                0x000000000107c1ec       0x28 lib/built-in.o
                0x000000000107c1ec                get_timer
 .text.__udelay
                0x000000000107c214       0x78 lib/built-in.o
                0x000000000107c214                __udelay
 .text.udelay   0x000000000107c28c       0x44 lib/built-in.o
                0x000000000107c28c                udelay
 .text.mdelay   0x000000000107c2d0       0x30 lib/built-in.o
                0x000000000107c2d0                mdelay
 .text.put_dec_trunc
                0x000000000107c300       0xdc lib/built-in.o
 .text.put_dec  0x000000000107c3dc      0x138 lib/built-in.o
 .text.string.isra.0
                0x000000000107c514       0xa8 lib/built-in.o
 .text.number.isra.4
                0x000000000107c5bc      0x27c lib/built-in.o
 .text.vsnprintf_internal.isra.6
                0x000000000107c838      0x824 lib/built-in.o
 .text.simple_strtoul
                0x000000000107d05c       0xd0 lib/built-in.o
                0x000000000107d05c                simple_strtoul
 .text.strict_strtoul
                0x000000000107d12c       0x88 lib/built-in.o
                0x000000000107d12c                strict_strtoul
 .text.simple_strtol
                0x000000000107d1b4       0x30 lib/built-in.o
                0x000000000107d1b4                simple_strtol
 .text.simple_strtoull
                0x000000000107d1e4       0xd0 lib/built-in.o
                0x000000000107d1e4                simple_strtoull
 .text.vsprintf
                0x000000000107d2b4       0x40 lib/built-in.o
                0x000000000107d2b4                vsprintf
 .text.sprintf  0x000000000107d2f4       0x8c lib/built-in.o
                0x000000000107d2f4                sprintf
 .text.panic    0x000000000107d380       0xac lib/built-in.o
                0x000000000107d380                panic
 .text.simple_itoa
                0x000000000107d42c       0x3c lib/built-in.o
                0x000000000107d42c                simple_itoa
 .text.ArpInit  0x000000000107d468       0x50 net/built-in.o
                0x000000000107d468                ArpInit
 .text.arp_raw_request
                0x000000000107d4b8       0xe4 net/built-in.o
                0x000000000107d4b8                arp_raw_request
 .text.ArpRequest
                0x000000000107d59c       0x90 net/built-in.o
                0x000000000107d59c                ArpRequest
 .text.ArpTimeoutCheck
                0x000000000107d62c       0x94 net/built-in.o
                0x000000000107d62c                ArpTimeoutCheck
 .text.ArpReceive
                0x000000000107d6c0      0x21c net/built-in.o
                0x000000000107d6c0                ArpReceive
 .text.DhcpOptionsProcess
                0x000000000107d8dc      0x220 net/built-in.o
 .text.DhcpHandler
                0x000000000107dafc      0x498 net/built-in.o
 .text.BootpReset
                0x000000000107df94       0x4c net/built-in.o
                0x000000000107df94                BootpReset
 .text.BootpRequest
                0x000000000107dfe0      0x2b4 net/built-in.o
                0x000000000107dfe0                BootpRequest
 .text.BootpTimeout
                0x000000000107e294       0x74 net/built-in.o
 .text.DhcpRequest
                0x000000000107e308        0x4 net/built-in.o
                0x000000000107e308                DhcpRequest
 .text.__def_eth_init
                0x000000000107e30c        0x8 net/built-in.o
                0x000000000107e30c                cpu_eth_init
 .text.eth_current_changed
                0x000000000107e314       0x7c net/built-in.o
 .text.eth_parse_enetaddr
                0x000000000107e390       0x70 net/built-in.o
                0x000000000107e390                eth_parse_enetaddr
 .text.eth_getenv_enetaddr
                0x000000000107e400       0x68 net/built-in.o
                0x000000000107e400                eth_getenv_enetaddr
 .text.eth_setenv_enetaddr
                0x000000000107e468       0x3c net/built-in.o
                0x000000000107e468                eth_setenv_enetaddr
 .text.eth_getenv_enetaddr_by_index
                0x000000000107e4a4       0x54 net/built-in.o
                0x000000000107e4a4                eth_getenv_enetaddr_by_index
 .text.eth_get_dev_index
                0x000000000107e4f8       0x20 net/built-in.o
                0x000000000107e4f8                eth_get_dev_index
 .text.eth_write_hwaddr
                0x000000000107e518      0x43c net/built-in.o
                0x000000000107e518                eth_write_hwaddr
 .text.eth_register
                0x000000000107e954       0x94 net/built-in.o
                0x000000000107e954                eth_register
 .text.eth_initialize
                0x000000000107e9e8      0x1f0 net/built-in.o
                0x000000000107e9e8                eth_initialize
 .text.eth_halt
                0x000000000107ebd8       0x3c net/built-in.o
                0x000000000107ebd8                eth_halt
 .text.eth_send
                0x000000000107ec14       0x3c net/built-in.o
                0x000000000107ec14                eth_send
 .text.eth_rx   0x000000000107ec50       0x30 net/built-in.o
                0x000000000107ec50                eth_rx
 .text.eth_try_another
                0x000000000107ec80       0x9c net/built-in.o
                0x000000000107ec80                eth_try_another
 .text.eth_init
                0x000000000107ed1c       0xe4 net/built-in.o
                0x000000000107ed1c                eth_init
 .text.eth_set_current
                0x000000000107ee00       0xc4 net/built-in.o
                0x000000000107ee00                eth_set_current
 .text.eth_get_name
                0x000000000107eec4       0x1c net/built-in.o
                0x000000000107eec4                eth_get_name
 .text.startAgainTimeout
                0x000000000107eee0       0x14 net/built-in.o
 .text.dummy_handler
                0x000000000107eef4        0x4 net/built-in.o
 .text.net_clear_handlers
                0x000000000107eef8       0x30 net/built-in.o
 .text.net_auto_load
                0x000000000107ef28       0x3c net/built-in.o
                0x000000000107ef28                net_auto_load
 .text.NetStartAgain
                0x000000000107ef64      0x15c net/built-in.o
                0x000000000107ef64                NetStartAgain
 .text.net_set_udp_handler
                0x000000000107f0c0       0x1c net/built-in.o
                0x000000000107f0c0                net_set_udp_handler
 .text.net_get_arp_handler
                0x000000000107f0dc       0x10 net/built-in.o
                0x000000000107f0dc                net_get_arp_handler
 .text.NetSetTimeout
                0x000000000107f0ec       0x60 net/built-in.o
                0x000000000107f0ec                NetSetTimeout
 .text.NetCksum
                0x000000000107f14c       0x34 net/built-in.o
                0x000000000107f14c                NetCksum
 .text.NetCksumOk
                0x000000000107f180       0x20 net/built-in.o
                0x000000000107f180                NetCksumOk
 .text.NetReceive
                0x000000000107f1a0      0x290 net/built-in.o
                0x000000000107f1a0                NetReceive
 .text.NetEthHdrSize
                0x000000000107f430       0x3c net/built-in.o
                0x000000000107f430                NetEthHdrSize
 .text.NetSetEther
                0x000000000107f46c       0xb0 net/built-in.o
                0x000000000107f46c                NetSetEther
 .text.net_update_ether
                0x000000000107f51c       0x8c net/built-in.o
                0x000000000107f51c                net_update_ether
 .text.net_set_ip_header
                0x000000000107f5a8       0x90 net/built-in.o
                0x000000000107f5a8                net_set_ip_header
 .text.net_set_udp_header
                0x000000000107f638       0xa4 net/built-in.o
                0x000000000107f638                net_set_udp_header
 .text.NetSendUDPPacket
                0x000000000107f6dc      0x118 net/built-in.o
                0x000000000107f6dc                NetSendUDPPacket
 .text.copy_filename
                0x000000000107f7f4       0x44 net/built-in.o
                0x000000000107f7f4                copy_filename
 .text.on_bootfile
                0x000000000107f838       0x30 net/built-in.o
 .text.ip_to_string
                0x000000000107f868       0x24 net/built-in.o
                0x000000000107f868                ip_to_string
 .text.string_to_VLAN
                0x000000000107f88c       0x4c net/built-in.o
                0x000000000107f88c                string_to_VLAN
 .text.getenv_VLAN
                0x000000000107f8d8       0x14 net/built-in.o
                0x000000000107f8d8                getenv_VLAN
 .text.NetInitLoop
                0x000000000107f8ec      0x100 net/built-in.o
 .text.net_init
                0x000000000107f9ec       0x7c net/built-in.o
                0x000000000107f9ec                net_init
 .text.NetLoop  0x000000000107fa68      0x33c net/built-in.o
                0x000000000107fa68                NetLoop
 .text.ping_timeout
                0x000000000107fda4       0x20 net/built-in.o
 .text.ping_start
                0x000000000107fdc4      0x124 net/built-in.o
                0x000000000107fdc4                ping_start
 .text.ping_receive
                0x000000000107fee8      0x104 net/built-in.o
                0x000000000107fee8                ping_receive
 .text.rarp_receive
                0x000000000107ffec       0xdc net/built-in.o
                0x000000000107ffec                rarp_receive
 .text.RarpRequest
                0x00000000010800c8       0xf4 net/built-in.o
                0x00000000010800c8                RarpRequest
 .text.RarpTimeout
                0x00000000010801bc       0x48 net/built-in.o
 .text.TftpSend
                0x0000000001080204      0x1c4 net/built-in.o
 .text.TftpHandler
                0x00000000010803c8      0x3d8 net/built-in.o
 .text.TftpTimeout
                0x00000000010807a0       0x94 net/built-in.o
 .text.TftpStart
                0x0000000001080834      0x334 net/built-in.o
                0x0000000001080834                TftpStart
                0x0000000001080b68                . = ALIGN (0x8)

.rodata         0x0000000001080b68    0x22dec
 *(SORT(.rodata*))
 .rodata        0x0000000001080b68      0x168 common/built-in.o
 .rodata        0x0000000001080cd0      0x2b8 drivers/built-in.o
 .rodata.CSWTCH.18
                0x0000000001080f88       0x18 common/built-in.o
 .rodata.CSWTCH.23
                0x0000000001080fa0       0x28 common/built-in.o
 .rodata.CSWTCH.67
                0x0000000001080fc8       0x20 arch/arm/cpu/armv8/built-in.o
 .rodata.CSWTCH.68
                0x0000000001080fe8       0x40 arch/arm/cpu/armv8/built-in.o
 .rodata.CSWTCH.69
                0x0000000001081028       0x40 arch/arm/cpu/armv8/built-in.o
 .rodata.CSWTCH.70
                0x0000000001081068       0x20 arch/arm/cpu/armv8/built-in.o
 .rodata.CSWTCH.71
                0x0000000001081088       0x40 arch/arm/cpu/armv8/built-in.o
 .rodata.CSWTCH.72
                0x00000000010810c8       0x20 arch/arm/cpu/armv8/built-in.o
 .rodata.CSWTCH.73
                0x00000000010810e8       0x20 arch/arm/cpu/armv8/built-in.o
 .rodata.CSWTCH.74
                0x0000000001081108       0x40 arch/arm/cpu/armv8/built-in.o
 .rodata.CSWTCH.75
                0x0000000001081148       0x20 arch/arm/cpu/armv8/built-in.o
 .rodata.CSWTCH.87
                0x0000000001081168       0x98 common/built-in.o
 .rodata.CSWTCH.98
                0x0000000001081200        0x8 arch/arm/cpu/armv8/built-in.o
 .rodata.__FUNCTION__.5835
                0x0000000001081208       0x18 common/built-in.o
 .rodata.__FUNCTION__.5983
                0x0000000001081220       0x10 drivers/i2c/built-in.o
 .rodata.__FUNCTION__.6000
                0x0000000001081230       0x10 drivers/i2c/built-in.o
 .rodata.__FUNCTION__.6021
                0x0000000001081240       0x10 drivers/i2c/built-in.o
 .rodata.__FUNCTION__.6568
                0x0000000001081250       0x18 common/built-in.o
 .rodata.__FUNCTION__.6609
                0x0000000001081268       0x18 drivers/usb/host/built-in.o
 .rodata.__FUNCTION__.6614
                0x0000000001081280       0x18 drivers/usb/host/built-in.o
 .rodata.__FUNCTION__.6623
                0x0000000001081298       0x10 drivers/usb/host/built-in.o
 .rodata.__FUNCTION__.6637
                0x00000000010812a8       0x10 common/built-in.o
 .rodata.__FUNCTION__.6648
                0x00000000010812b8       0x20 drivers/usb/host/built-in.o
 .rodata.__FUNCTION__.6655
                0x00000000010812d8       0x10 drivers/usb/host/built-in.o
 .rodata.__FUNCTION__.6669
                0x00000000010812e8       0x18 drivers/usb/host/built-in.o
 .rodata.__FUNCTION__.6670
                0x0000000001081300       0x18 drivers/usb/host/built-in.o
 .rodata.__FUNCTION__.6677
                0x0000000001081318       0x10 drivers/usb/host/built-in.o
 .rodata.__FUNCTION__.6687
                0x0000000001081328       0x20 drivers/usb/host/built-in.o
 .rodata.__FUNCTION__.6689
                0x0000000001081348       0x18 drivers/usb/host/built-in.o
 .rodata.__FUNCTION__.6704
                0x0000000001081360       0x18 drivers/usb/host/built-in.o
 .rodata.__FUNCTION__.6705
                0x0000000001081378       0x18 drivers/nand/built-in.o
 .rodata.__FUNCTION__.6707
                0x0000000001081390       0x18 drivers/usb/host/built-in.o
 .rodata.__FUNCTION__.6715
                0x00000000010813a8       0x10 drivers/usb/host/built-in.o
 .rodata.__FUNCTION__.6720
                0x00000000010813b8       0x20 drivers/usb/host/built-in.o
 .rodata.__FUNCTION__.6721
                0x00000000010813d8       0x18 drivers/usb/host/built-in.o
 .rodata.__FUNCTION__.6725
                0x00000000010813f0       0x18 drivers/usb/host/built-in.o
 .rodata.__FUNCTION__.6756
                0x0000000001081408       0x18 drivers/nand/built-in.o
 .rodata.__FUNCTION__.6759
                0x0000000001081420       0x20 drivers/usb/host/built-in.o
 .rodata.__FUNCTION__.6763
                0x0000000001081440       0x20 drivers/nand/built-in.o
 .rodata.__FUNCTION__.6769
                0x0000000001081460       0x10 drivers/usb/host/built-in.o
 .rodata.__FUNCTION__.6771
                0x0000000001081470       0x18 drivers/nand/built-in.o
 .rodata.__FUNCTION__.6793
                0x0000000001081488       0x10 drivers/usb/host/built-in.o
 .rodata.__FUNCTION__.6811
                0x0000000001081498       0x18 drivers/nand/built-in.o
 .rodata.__FUNCTION__.6882
                0x00000000010814b0       0x10 drivers/nand/built-in.o
 .rodata.__FUNCTION__.6979
                0x00000000010814c0       0x10 drivers/nand/built-in.o
 .rodata.__FUNCTION__.7367
                0x00000000010814d0       0x18 drivers/nand/built-in.o
 .rodata.__FUNCTION__.7384
                0x00000000010814e8       0x18 drivers/nand/built-in.o
 .rodata.__func__.3200
                0x0000000001081500       0x18 drivers/built-in.o
 .rodata.__func__.5593
                0x0000000001081518       0x18 drivers/built-in.o
 .rodata.__func__.5605
                0x0000000001081530       0x18 common/built-in.o
 .rodata.__func__.5606
                0x0000000001081548       0x18 drivers/built-in.o
 .rodata.__func__.5618
                0x0000000001081560       0x20 drivers/built-in.o
 .rodata.__func__.5624
                0x0000000001081580       0x10 disk/built-in.o
 .rodata.__func__.5626
                0x0000000001081590       0x18 drivers/built-in.o
 .rodata.__func__.5635
                0x00000000010815a8       0x18 drivers/built-in.o
 .rodata.__func__.5646
                0x00000000010815c0       0x18 drivers/built-in.o
 .rodata.__func__.5655
                0x00000000010815d8       0x10 drivers/built-in.o
 .rodata.__func__.5662
                0x00000000010815e8       0x10 drivers/built-in.o
 .rodata.__func__.5668
                0x00000000010815f8       0x10 drivers/built-in.o
 .rodata.__func__.5670
                0x0000000001081608       0x18 drivers/built-in.o
 .rodata.__func__.5681
                0x0000000001081620       0x10 drivers/built-in.o
 .rodata.__func__.5683
                0x0000000001081630       0x10 common/built-in.o
 .rodata.__func__.5690
                0x0000000001081640       0x10 drivers/built-in.o
 .rodata.__func__.5696
                0x0000000001081650       0x18 common/built-in.o
 .rodata.__func__.5701
                0x0000000001081668       0x10 drivers/built-in.o
 .rodata.__func__.5722
                0x0000000001081678        0x8 common/built-in.o
 .rodata.__func__.5728
                0x0000000001081680       0x10 common/built-in.o
 .rodata.__func__.5734
                0x0000000001081690       0x10 common/built-in.o
 .rodata.__func__.5734
                0x00000000010816a0       0x20 drivers/built-in.o
 .rodata.__func__.5739
                0x00000000010816c0       0x10 common/built-in.o
 .rodata.__func__.5740
                0x00000000010816d0       0x10 common/built-in.o
 .rodata.__func__.5746
                0x00000000010816e0       0x20 common/built-in.o
 .rodata.__func__.5750
                0x0000000001081700       0x28 common/built-in.o
 .rodata.__func__.5754
                0x0000000001081728       0x10 common/built-in.o
 .rodata.__func__.5754
                0x0000000001081738       0x20 drivers/built-in.o
 .rodata.__func__.5757
                0x0000000001081758       0x10 common/built-in.o
 .rodata.__func__.5759
                0x0000000001081768       0x20 drivers/built-in.o
 .rodata.__func__.5764
                0x0000000001081788       0x20 drivers/built-in.o
 .rodata.__func__.5767
                0x00000000010817a8       0x18 common/built-in.o
 .rodata.__func__.5768
                0x00000000010817c0       0x18 drivers/built-in.o
 .rodata.__func__.5769
                0x00000000010817d8       0x20 drivers/built-in.o
 .rodata.__func__.5769
                0x00000000010817f8       0x10 drivers/i2c/built-in.o
 .rodata.__func__.5771
                0x0000000001081808       0x20 drivers/built-in.o
 .rodata.__func__.5777
                0x0000000001081828       0x20 drivers/i2c/built-in.o
 .rodata.__func__.5780
                0x0000000001081848       0x18 drivers/built-in.o
 .rodata.__func__.5781
                0x0000000001081860       0x10 common/built-in.o
 .rodata.__func__.5781
                0x0000000001081870       0x18 drivers/i2c/built-in.o
 .rodata.__func__.5783
                0x0000000001081888       0x18 drivers/built-in.o
 .rodata.__func__.5791
                0x00000000010818a0       0x18 drivers/built-in.o
 .rodata.__func__.5794
                0x00000000010818b8       0x18 drivers/built-in.o
 .rodata.__func__.5795
                0x00000000010818d0       0x10 drivers/i2c/built-in.o
 .rodata.__func__.5796
                0x00000000010818e0       0x18 drivers/built-in.o
 .rodata.__func__.5796
                0x00000000010818f8       0x10 fs/built-in.o
 .rodata.__func__.5800
                0x0000000001081908       0x10 drivers/built-in.o
 .rodata.__func__.5801
                0x0000000001081918       0x10 drivers/built-in.o
 .rodata.__func__.5804
                0x0000000001081928       0x20 drivers/i2c/built-in.o
 .rodata.__func__.5805
                0x0000000001081948       0x18 drivers/built-in.o
 .rodata.__func__.5808
                0x0000000001081960       0x18 drivers/i2c/built-in.o
 .rodata.__func__.5812
                0x0000000001081978       0x18 drivers/built-in.o
 .rodata.__func__.5818
                0x0000000001081990       0x10 drivers/i2c/built-in.o
 .rodata.__func__.5821
                0x00000000010819a0       0x28 drivers/built-in.o
 .rodata.__func__.5823
                0x00000000010819c8       0x18 drivers/i2c/built-in.o
 .rodata.__func__.5827
                0x00000000010819e0       0x18 drivers/built-in.o
 .rodata.__func__.5828
                0x00000000010819f8       0x18 drivers/i2c/built-in.o
 .rodata.__func__.5832
                0x0000000001081a10       0x10 drivers/built-in.o
 .rodata.__func__.5838
                0x0000000001081a20       0x10 drivers/built-in.o
 .rodata.__func__.5839
                0x0000000001081a30       0x18 drivers/built-in.o
 .rodata.__func__.5839
                0x0000000001081a48       0x18 drivers/i2c/built-in.o
 .rodata.__func__.5847
                0x0000000001081a60       0x10 drivers/built-in.o
 .rodata.__func__.5850
                0x0000000001081a70       0x18 drivers/built-in.o
 .rodata.__func__.5856
                0x0000000001081a88       0x18 drivers/built-in.o
 .rodata.__func__.5860
                0x0000000001081aa0       0x18 drivers/i2c/built-in.o
 .rodata.__func__.5862
                0x0000000001081ab8       0x18 drivers/built-in.o
 .rodata.__func__.5866
                0x0000000001081ad0       0x18 drivers/built-in.o
 .rodata.__func__.5868
                0x0000000001081ae8       0x10 common/built-in.o
 .rodata.__func__.5868
                0x0000000001081af8       0x18 drivers/built-in.o
 .rodata.__func__.5875
                0x0000000001081b10       0x20 drivers/built-in.o
 .rodata.__func__.5878
                0x0000000001081b30       0x18 drivers/built-in.o
 .rodata.__func__.5879
                0x0000000001081b48       0x18 drivers/i2c/built-in.o
 .rodata.__func__.5883
                0x0000000001081b60       0x20 drivers/i2c/built-in.o
 .rodata.__func__.5884
                0x0000000001081b80       0x18 common/built-in.o
 .rodata.__func__.5886
                0x0000000001081b98       0x18 drivers/built-in.o
 .rodata.__func__.5888
                0x0000000001081bb0       0x18 drivers/i2c/built-in.o
 .rodata.__func__.5892
                0x0000000001081bc8       0x10 drivers/built-in.o
 .rodata.__func__.5892
                0x0000000001081bd8       0x10 drivers/i2c/built-in.o
 .rodata.__func__.5893
                0x0000000001081be8       0x18 drivers/built-in.o
 .rodata.__func__.5899
                0x0000000001081c00       0x10 drivers/i2c/built-in.o
 .rodata.__func__.5901
                0x0000000001081c10       0x18 drivers/built-in.o
 .rodata.__func__.5918
                0x0000000001081c28       0x10 drivers/i2c/built-in.o
 .rodata.__func__.5920
                0x0000000001081c38       0x18 drivers/built-in.o
 .rodata.__func__.5936
                0x0000000001081c50       0x10 drivers/built-in.o
 .rodata.__func__.5937
                0x0000000001081c60       0x10 drivers/i2c/built-in.o
 .rodata.__func__.5950
                0x0000000001081c70       0x18 drivers/built-in.o
 .rodata.__func__.5962
                0x0000000001081c88       0x18 drivers/built-in.o
 .rodata.__func__.5969
                0x0000000001081ca0       0x18 drivers/built-in.o
 .rodata.__func__.6000
                0x0000000001081cb8       0x10 drivers/built-in.o
 .rodata.__func__.6017
                0x0000000001081cc8       0x10 drivers/built-in.o
 .rodata.__func__.6032
                0x0000000001081cd8       0x10 drivers/built-in.o
 .rodata.__func__.6040
                0x0000000001081ce8       0x10 common/built-in.o
 .rodata.__func__.6041
                0x0000000001081cf8       0x10 arch/arm/cpu/armv8/built-in.o
 .rodata.__func__.6050
                0x0000000001081d08       0x10 arch/arm/cpu/armv8/built-in.o
 .rodata.__func__.6059
                0x0000000001081d18       0x10 arch/arm/cpu/armv8/built-in.o
 .rodata.__func__.6077
                0x0000000001081d28       0x10 common/built-in.o
 .rodata.__func__.6113
                0x0000000001081d38        0x8 common/built-in.o
 .rodata.__func__.6121
                0x0000000001081d40       0x18 common/built-in.o
 .rodata.__func__.6166
                0x0000000001081d58       0x20 drivers/mmc/built-in.o
 .rodata.__func__.6171
                0x0000000001081d78       0x18 drivers/built-in.o
 .rodata.__func__.6174
                0x0000000001081d90       0x20 drivers/built-in.o
 .rodata.__func__.6180
                0x0000000001081db0       0x18 drivers/built-in.o
 .rodata.__func__.6183
                0x0000000001081dc8       0x18 drivers/mmc/built-in.o
 .rodata.__func__.6213
                0x0000000001081de0       0x18 drivers/mmc/built-in.o
 .rodata.__func__.6238
                0x0000000001081df8       0x18 drivers/mmc/built-in.o
 .rodata.__func__.6283
                0x0000000001081e10       0x20 drivers/built-in.o
 .rodata.__func__.6298
                0x0000000001081e30       0x10 drivers/mmc/built-in.o
 .rodata.__func__.6311
                0x0000000001081e40       0x10 drivers/mmc/built-in.o
 .rodata.__func__.6319
                0x0000000001081e50       0x10 drivers/mmc/built-in.o
 .rodata.__func__.6328
                0x0000000001081e60       0x10 drivers/mmc/built-in.o
 .rodata.__func__.6339
                0x0000000001081e70       0x10 drivers/mmc/built-in.o
 .rodata.__func__.6349
                0x0000000001081e80       0x10 drivers/mmc/built-in.o
 .rodata.__func__.6433
                0x0000000001081e90       0x10 drivers/mmc/built-in.o
 .rodata.__func__.6455
                0x0000000001081ea0       0x10 drivers/mmc/built-in.o
 .rodata.__func__.6468
                0x0000000001081eb0       0x20 drivers/mmc/built-in.o
 .rodata.__func__.6487
                0x0000000001081ed0       0x18 drivers/nand/built-in.o
 .rodata.__func__.6495
                0x0000000001081ee8       0x10 drivers/mmc/built-in.o
 .rodata.__func__.6496
                0x0000000001081ef8       0x20 drivers/mmc/built-in.o
 .rodata.__func__.6506
                0x0000000001081f18       0x28 drivers/mmc/built-in.o
 .rodata.__func__.6510
                0x0000000001081f40       0x10 drivers/nand/built-in.o
 .rodata.__func__.6516
                0x0000000001081f50       0x18 drivers/mmc/built-in.o
 .rodata.__func__.6523
                0x0000000001081f68       0x28 drivers/nand/built-in.o
 .rodata.__func__.6527
                0x0000000001081f90       0x18 drivers/nand/built-in.o
 .rodata.__func__.6528
                0x0000000001081fa8       0x10 drivers/usb/gadget/built-in.o
 .rodata.__func__.6534
                0x0000000001081fb8       0x18 drivers/nand/built-in.o
 .rodata.__func__.6544
                0x0000000001081fd0       0x18 drivers/nand/built-in.o
 .rodata.__func__.6549
                0x0000000001081fe8       0x10 drivers/mmc/built-in.o
 .rodata.__func__.6562
                0x0000000001081ff8       0x10 drivers/nand/built-in.o
 .rodata.__func__.6569
                0x0000000001082008       0x10 drivers/mmc/built-in.o
 .rodata.__func__.6574
                0x0000000001082018       0x10 drivers/usb/gadget/built-in.o
 .rodata.__func__.6576
                0x0000000001082028       0x10 arch/arm/cpu/armv8/built-in.o
 .rodata.__func__.6576
                0x0000000001082038       0x18 common/built-in.o
 .rodata.__func__.6582
                0x0000000001082050       0x10 drivers/usb/gadget/built-in.o
 .rodata.__func__.6585
                0x0000000001082060       0x10 common/built-in.o
 .rodata.__func__.6586
                0x0000000001082070       0x10 drivers/mmc/built-in.o
 .rodata.__func__.6592
                0x0000000001082080       0x20 common/built-in.o
 .rodata.__func__.6594
                0x00000000010820a0       0x10 common/built-in.o
 .rodata.__func__.6595
                0x00000000010820b0       0x10 drivers/usb/gadget/built-in.o
 .rodata.__func__.6599
                0x00000000010820c0       0x10 common/built-in.o
 .rodata.__func__.6599
                0x00000000010820d0       0x18 drivers/nand/built-in.o
 .rodata.__func__.6611
                0x00000000010820e8       0x18 common/built-in.o
 .rodata.__func__.6611
                0x0000000001082100       0x10 drivers/nand/built-in.o
 .rodata.__func__.6620
                0x0000000001082110       0x18 drivers/usb/gadget/built-in.o
 .rodata.__func__.6627
                0x0000000001082128       0x10 common/built-in.o
 .rodata.__func__.6652
                0x0000000001082138       0x10 common/built-in.o
 .rodata.__func__.6690
                0x0000000001082148       0x10 common/built-in.o
 .rodata.__func__.6694
                0x0000000001082158       0x10 drivers/nand/built-in.o
 .rodata.__func__.6697
                0x0000000001082168       0x20 drivers/nand/built-in.o
 .rodata.__func__.6700
                0x0000000001082188       0x20 drivers/nand/built-in.o
 .rodata.__func__.6702
                0x00000000010821a8       0x10 drivers/nand/built-in.o
 .rodata.__func__.6703
                0x00000000010821b8       0x10 drivers/nand/built-in.o
 .rodata.__func__.6708
                0x00000000010821c8       0x10 drivers/nand/built-in.o
 .rodata.__func__.6710
                0x00000000010821d8       0x28 drivers/nand/built-in.o
 .rodata.__func__.6714
                0x0000000001082200       0x10 drivers/nand/built-in.o
 .rodata.__func__.6718
                0x0000000001082210       0x30 drivers/nand/built-in.o
 .rodata.__func__.6721
                0x0000000001082240       0x10 drivers/nand/built-in.o
 .rodata.__func__.6725
                0x0000000001082250       0x20 drivers/nand/built-in.o
 .rodata.__func__.6733
                0x0000000001082270       0x20 drivers/nand/built-in.o
 .rodata.__func__.6751
                0x0000000001082290       0x10 drivers/nand/built-in.o
 .rodata.__func__.6762
                0x00000000010822a0       0x18 drivers/nand/built-in.o
 .rodata.__func__.6768
                0x00000000010822b8       0x10 drivers/nand/built-in.o
 .rodata.__func__.6780
                0x00000000010822c8       0x10 drivers/nand/built-in.o
 .rodata.__func__.6790
                0x00000000010822d8       0x28 drivers/nand/built-in.o
 .rodata.__func__.6802
                0x0000000001082300       0x10 drivers/nand/built-in.o
 .rodata.__func__.6877
                0x0000000001082310       0x18 drivers/nand/built-in.o
 .rodata.__func__.6912
                0x0000000001082328       0x20 drivers/nand/built-in.o
 .rodata.__func__.6943
                0x0000000001082348       0x18 drivers/nand/built-in.o
 .rodata.__func__.6948
                0x0000000001082360       0x10 drivers/nand/built-in.o
 .rodata.__func__.7008
                0x0000000001082370       0x20 drivers/nand/built-in.o
 .rodata.__func__.7011
                0x0000000001082390       0x18 drivers/nand/built-in.o
 .rodata.__func__.7039
                0x00000000010823a8       0x18 drivers/nand/built-in.o
 .rodata.__func__.7177
                0x00000000010823c0       0x18 drivers/nand/built-in.o
 .rodata.__func__.7193
                0x00000000010823d8       0x18 drivers/nand/built-in.o
 .rodata.__func__.7226
                0x00000000010823f0       0x20 drivers/nand/built-in.o
 .rodata.__func__.7356
                0x0000000001082410       0x10 drivers/nand/built-in.o
 .rodata.__func__.7368
                0x0000000001082420       0x18 drivers/nand/built-in.o
 .rodata.__func__.7375
                0x0000000001082438       0x18 drivers/nand/built-in.o
 .rodata.__func__.7385
                0x0000000001082450       0x18 drivers/nand/built-in.o
 .rodata.__func__.7419
                0x0000000001082468       0x10 drivers/usb/gadget/built-in.o
 .rodata.__func__.7449
                0x0000000001082478       0x18 common/built-in.o
 .rodata.__func__.7473
                0x0000000001082490       0x18 common/built-in.o
 .rodata.__func__.7485
                0x00000000010824a8       0x10 drivers/built-in.o
 .rodata.__func__.7487
                0x00000000010824b8       0x10 common/built-in.o
 .rodata.__func__.7500
                0x00000000010824c8       0x10 common/built-in.o
 .rodata.__func__.7515
                0x00000000010824d8       0x18 common/built-in.o
 .rodata.__func__.7522
                0x00000000010824f0       0x10 board/amlogic/gxl_p212_v1/built-in.o
 .rodata.__func__.7563
                0x0000000001082500       0x10 common/built-in.o
 .rodata._amlHdcp22RxKeys
                0x0000000001082510       0x30 drivers/built-in.o
 .rodata._cfgKeyTypes
                0x0000000001082540       0x20 drivers/built-in.o
 .rodata._configDescTotal
                0x0000000001082560       0x20 drivers/built-in.o
 .rodata._ctype
                0x0000000001082580      0x100 lib/built-in.o
                0x0000000001082580                _ctype
 .rodata._env_args_reserve_
                0x0000000001082680       0x18 board/amlogic/gxl_p212_v1/built-in.o
                0x0000000001082680                _env_args_reserve_
 .rodata._iniSets
                0x0000000001082698       0x20 drivers/built-in.o
 .rodata.all_fmt_paras
                0x00000000010826b8       0xd8 common/built-in.o
 .rodata.aml_sd_emmc_ops
                0x0000000001082790       0x38 drivers/mmc/built-in.o
 .rodata.block_drvr
                0x00000000010827c8       0x48 disk/built-in.o
 .rodata.boot_os
                0x0000000001082810       0xc0 common/built-in.o
 .rodata.channel_names
                0x00000000010828d0      0x100 common/built-in.o
 .rodata.clk_table
                0x00000000010829d0      0x298 arch/arm/cpu/armv8/built-in.o
 .rodata.cmd_dispatch_info
                0x0000000001082c68       0xc0 drivers/usb/gadget/built-in.o
 .rodata.crc_table
                0x0000000001082d28      0x400 lib/built-in.o
 .rodata.dbase.5901
                0x0000000001083128       0x40 lib/built-in.o
 .rodata.default_color_format_array
                0x0000000001083168      0x2a8 drivers/built-in.o
 .rodata.default_environment
                0x0000000001083410     0x11b0 common/built-in.o
                0x0000000001083410                default_environment
 .rodata.delims.5612
                0x00000000010845c0        0x8 common/built-in.o
 .rodata.device_desc
                0x00000000010845c8       0x18 drivers/built-in.o
 .rodata.dext.5902
                0x00000000010845e0       0x40 lib/built-in.o
 .rodata.digits.5609
                0x0000000001084620       0x10 lib/built-in.o
 .rodata.distfix
                0x0000000001084630       0x80 lib/built-in.o
 .rodata.domain
                0x00000000010846b0       0x10 arch/arm/cpu/armv8/built-in.o
 .rodata.dt_string_id
                0x00000000010846c0        0x8 drivers/built-in.o
 .rodata.dt_string_pid
                0x00000000010846c8       0x10 drivers/built-in.o
 .rodata.dt_string_serial
                0x00000000010846d8       0x18 drivers/built-in.o
 .rodata.dt_string_vid
                0x00000000010846f0       0x10 drivers/built-in.o
 .rodata.dwc_pcd_ops
                0x0000000001084700       0x38 drivers/usb/gadget/built-in.o
 .rodata.env_flags_varaccess_mask
                0x0000000001084738       0x10 common/built-in.o
 .rodata.env_flags_varaccess_rep
                0x0000000001084748        0x8 common/built-in.o
 .rodata.env_flags_vartype_rep
                0x0000000001084750        0x8 common/built-in.o
 .rodata.erase_seq
                0x0000000001084758        0x8 common/built-in.o
 .rodata.ext_csd_bits.6424
                0x0000000001084760       0x18 drivers/mmc/built-in.o
 .rodata.ext_to_hostcaps.6425
                0x0000000001084778       0x20 drivers/mmc/built-in.o
 .rodata.fastboot_name
                0x0000000001084798       0x18 drivers/usb/gadget/built-in.o
 .rodata.fbase  0x00000000010847b0       0x10 drivers/mmc/built-in.o
 .rodata.fclk_div_table
                0x00000000010847c0       0x18 drivers/built-in.o
 .rodata.fclk_table
                0x00000000010847d8        0x8 drivers/built-in.o
 .rodata.fdt_errtable
                0x00000000010847e0       0x68 lib/built-in.o
 .rodata.filter_table
                0x0000000001084848       0x48 drivers/built-in.o
 .rodata.g_aml_i2c_reg_start
                0x0000000001084890       0x28 drivers/i2c/built-in.o
 .rodata.gpio_aml_ops
                0x00000000010848b8       0x38 drivers/gpio/built-in.o
 .rodata.gpio_function
                0x00000000010848f0       0x28 drivers/gpio/built-in.o
 .rodata.gxbb_modes
                0x0000000001084918      0x288 arch/arm/cpu/armv8/built-in.o
 .rodata.gzip_magic
                0x0000000001084ba0        0x8 common/built-in.o
 .rodata.hex_asc
                0x0000000001084ba8       0x18 lib/built-in.o
 .rodata.hw_func_array
                0x0000000001084bc0       0xc0 drivers/built-in.o
 .rodata.id.7245
                0x0000000001084c80        0x8 drivers/built-in.o
 .rodata.lbase.5899
                0x0000000001084c88       0x40 lib/built-in.o
 .rodata.lenfix
                0x0000000001084cc8      0x800 lib/built-in.o
 .rodata.lext.5900
                0x00000000010854c8       0x40 lib/built-in.o
 .rodata.lzop_magic
                0x0000000001085508       0x10 common/built-in.o
 .rodata.lzop_magic
                0x0000000001085518       0x10 lib/built-in.o
 .rodata.manufacturer
                0x0000000001085528        0x8 drivers/usb/gadget/built-in.o
 .rodata.multipliers
                0x0000000001085530       0x40 drivers/mmc/built-in.o
 .rodata.names.5620
                0x0000000001085570        0x8 lib/built-in.o
 .rodata.op_adv
                0x0000000001085578      0x180 common/built-in.o
                0x0000000001085578                op_adv
 .rodata.op_table
                0x00000000010856f8       0xd0 common/built-in.o
 .rodata.order.5995
                0x00000000010857c8       0x28 lib/built-in.o
 .rodata.parse_cd_
                0x00000000010857f0       0x40 common/built-in.o
 .rodata.parse_cr_
                0x0000000001085830       0x20 common/built-in.o
 .rodata.parse_cs_
                0x0000000001085850       0x40 common/built-in.o
 .rodata.product
                0x0000000001085890       0x18 drivers/usb/gadget/built-in.o
 .rodata.root_info
                0x00000000010858a8       0x10 drivers/built-in.o
 .rodata.sha1_padding
                0x00000000010858b8       0x40 lib/built-in.o
 .rodata.tab_seq
                0x00000000010858f8       0x10 common/built-in.o
 .rodata.tvregsTab
                0x0000000001085908      0x1f0 arch/arm/cpu/armv8/built-in.o
 .rodata.tvregs_1080i
                0x0000000001085af8      0x128 arch/arm/cpu/armv8/built-in.o
 .rodata.tvregs_1080i_50hz
                0x0000000001085c20      0x108 arch/arm/cpu/armv8/built-in.o
 .rodata.tvregs_1080p
                0x0000000001085d28      0x100 arch/arm/cpu/armv8/built-in.o
 .rodata.tvregs_1080p_24hz
                0x0000000001085e28      0x128 arch/arm/cpu/armv8/built-in.o
 .rodata.tvregs_1080p_50hz
                0x0000000001085f50      0x120 arch/arm/cpu/armv8/built-in.o
 .rodata.tvregs_480cvbs_enc
                0x0000000001086070      0x180 drivers/built-in.o
 .rodata.tvregs_480i
                0x00000000010861f0       0xe8 arch/arm/cpu/armv8/built-in.o
 .rodata.tvregs_480p
                0x00000000010862d8      0x110 arch/arm/cpu/armv8/built-in.o
 .rodata.tvregs_4k2k_24hz
                0x00000000010863e8       0xf0 arch/arm/cpu/armv8/built-in.o
 .rodata.tvregs_4k2k_25hz
                0x00000000010864d8       0xf0 arch/arm/cpu/armv8/built-in.o
 .rodata.tvregs_4k2k_30hz
                0x00000000010865c8       0xf0 arch/arm/cpu/armv8/built-in.o
 .rodata.tvregs_4k2k_smpte
                0x00000000010866b8       0xf0 arch/arm/cpu/armv8/built-in.o
 .rodata.tvregs_4k2k_smpte_25hz
                0x00000000010867a8       0xa0 arch/arm/cpu/armv8/built-in.o
 .rodata.tvregs_4k2k_smpte_30hz
                0x0000000001086848       0xa0 arch/arm/cpu/armv8/built-in.o
 .rodata.tvregs_576cvbs_china_sarft_905l
                0x00000000010868e8       0x20 drivers/built-in.o
 .rodata.tvregs_576cvbs_china_sarft_905x
                0x0000000001086908       0x20 drivers/built-in.o
 .rodata.tvregs_576cvbs_china_sarft_gxbb
                0x0000000001086928       0x20 drivers/built-in.o
 .rodata.tvregs_576cvbs_china_sarft_gxtvbb
                0x0000000001086948       0x28 drivers/built-in.o
 .rodata.tvregs_576cvbs_china_sarft_m8
                0x0000000001086970        0x8 drivers/built-in.o
 .rodata.tvregs_576cvbs_china_sarft_m8b
                0x0000000001086978       0x10 drivers/built-in.o
 .rodata.tvregs_576cvbs_china_sarft_m8m2
                0x0000000001086988       0x10 drivers/built-in.o
 .rodata.tvregs_576cvbs_china_sarft_txl
                0x0000000001086998       0x28 drivers/built-in.o
 .rodata.tvregs_576cvbs_enc
                0x00000000010869c0      0x170 drivers/built-in.o
 .rodata.tvregs_576i
                0x0000000001086b30      0x110 arch/arm/cpu/armv8/built-in.o
 .rodata.tvregs_576p
                0x0000000001086c40      0x110 arch/arm/cpu/armv8/built-in.o
 .rodata.tvregs_720p
                0x0000000001086d50       0xf0 arch/arm/cpu/armv8/built-in.o
 .rodata.tvregs_720p_50hz
                0x0000000001086e40      0x108 arch/arm/cpu/armv8/built-in.o
 .rodata.tvregs_pal_m_enc
                0x0000000001086f48      0x180 drivers/built-in.o
 .rodata.tvregs_pal_n_enc
                0x00000000010870c8      0x170 drivers/built-in.o
 .rodata.uimage_arch
                0x0000000001087238      0x258 common/built-in.o
 .rodata.uimage_comp
                0x0000000001087490       0x90 common/built-in.o
 .rodata.uimage_os
                0x0000000001087520       0xd8 common/built-in.o
 .rodata.uimage_type
                0x00000000010875f8      0x210 common/built-in.o
 .rodata.us_direction
                0x0000000001087808       0x20 common/built-in.o
 .rodata.vcbus_reg
                0x0000000001087828       0x10 drivers/built-in.o
 .rodata.version_string
                0x0000000001087838       0x28 common/built-in.o
                0x0000000001087838                version_string
 .rodata.vout_sets
                0x0000000001087860      0x260 drivers/built-in.o
 .rodata.vpu_clk_table
                0x0000000001087ac0      0x120 drivers/built-in.o
 .rodata.widths.6426
                0x0000000001087be0       0x18 drivers/mmc/built-in.o
 .rodata.NetLoop
                0x0000000001087bf8       0x18 net/built-in.o
 .rodata.TftpSend
                0x0000000001087c10        0x8 net/built-in.o
 .rodata.binary_test
                0x0000000001087c18       0x10 common/built-in.o
 .rodata.composite_setup
                0x0000000001087c28       0x1c drivers/usb/gadget/built-in.o
 .rodata.cvbs_set_vdac
                0x0000000001087c44        0x4 drivers/built-in.o
 .rodata.dev_print
                0x0000000001087c48       0x14 disk/built-in.o
 .rodata.do_amlmmcops
                0x0000000001087c5c        0xc common/built-in.o
 .rodata.do_fdt
                0x0000000001087c68       0x14 common/built-in.o
 .rodata.do_gadget_setup
                0x0000000001087c7c        0x4 drivers/built-in.o
 .rodata.do_get_rebootmode
                0x0000000001087c80       0x10 common/built-in.o
 .rodata.do_itest
                0x0000000001087c90        0x8 common/built-in.o
 .rodata.do_modify_memory
                0x0000000001087c98        0x8 drivers/built-in.o
 .rodata.do_read_temp
                0x0000000001087ca0        0x8 common/built-in.o
 .rodata.do_rx_det
                0x0000000001087ca8       0x10 common/built-in.o
 .rodata.do_store_dtb_ops
                0x0000000001087cb8        0x8 common/built-in.o
 .rodata.do_store_init
                0x0000000001087cc0        0xc common/built-in.o
 .rodata.do_store_key_ops
                0x0000000001087ccc        0x8 common/built-in.o
 .rodata.do_test
                0x0000000001087cd4       0x10 common/built-in.o
 .rodata.do_write_trim
                0x0000000001087ce4       0x10 common/built-in.o
 .rodata.env_flags_validate
                0x0000000001087cf4        0x8 common/built-in.o
 .rodata.fdt_next_tag
                0x0000000001087cfc        0xc lib/built-in.o
 .rodata.file_fat_detectfs
                0x0000000001087d08        0x8 fs/built-in.o
 .rodata.get_partition_info_extended.constprop.2
                0x0000000001087d10        0x8 disk/built-in.o
 .rodata.handle_ep0
                0x0000000001087d18       0x10 drivers/usb/gadget/built-in.o
 .rodata.handle_ep0.isra.7
                0x0000000001087d28       0x14 drivers/built-in.o
 .rodata.hdmi_edid_parsing
                0x0000000001087d3c       0x10 common/built-in.o
 .rodata.i2c_read
                0x0000000001087d4c        0x4 drivers/i2c/built-in.o
 .rodata.i2c_write
                0x0000000001087d50        0x4 drivers/i2c/built-in.o
 .rodata.inflate
                0x0000000001087d54       0x3c lib/built-in.o
 .rodata.key_manage_write
                0x0000000001087d90        0x8 drivers/built-in.o
 .rodata.mmc_set_capacity
                0x0000000001087d98        0x8 drivers/mmc/built-in.o
 .rodata.mmc_startup
                0x0000000001087da0       0x10 drivers/mmc/built-in.o
 .rodata.optimus_download_img_data
                0x0000000001087db0       0x10 drivers/built-in.o
 .rodata.optimus_simg_to_media
                0x0000000001087dc0       0x10 drivers/built-in.o
 .rodata.optimus_storage_init
                0x0000000001087dd0        0x8 drivers/built-in.o
 .rodata.optimus_storage_read.constprop.11
                0x0000000001087dd8        0x8 drivers/built-in.o
 .rodata.prepare_ring
                0x0000000001087de0        0x8 drivers/usb/host/built-in.o
 .rodata.print_part_header
                0x0000000001087de8        0xc disk/built-in.o
 .rodata.readretry_handle_a19_sandisk
                0x0000000001087df4        0x4 drivers/nand/built-in.o
 .rodata.record_transfer_result
                0x0000000001087df8       0x10 drivers/usb/host/built-in.o
 .rodata.set_hdmitx_clk_
                0x0000000001087e08       0x34 arch/arm/cpu/armv8/built-in.o
 .rodata.store_key_read
                0x0000000001087e3c        0x8 common/built-in.o
 .rodata.store_key_write
                0x0000000001087e44        0x8 common/built-in.o
 .rodata.submit_control_msg
                0x0000000001087e4c        0x8 drivers/usb/host/built-in.o
 .rodata.usb_display_class_sub
                0x0000000001087e54        0x8 common/built-in.o
 .rodata.vpu_probe
                0x0000000001087e5c       0x10 drivers/built-in.o
 .rodata.write_sparse_image
                0x0000000001087e6c        0x4 common/built-in.o
 .rodata.xhci_setup_addressable_virt_dev
                0x0000000001087e70       0x10 drivers/usb/host/built-in.o
 .rodata        0x0000000001087e80       0x29 board/amlogic/gxl_p212_v1/built-in.o
 .rodata        0x0000000001087ea9       0x3a drivers/usb/host/built-in.o
 .rodata        0x0000000001087ee3        0xe net/built-in.o
 .rodata.str1.1
                0x0000000001087ef1      0x8b0 arch/arm/cpu/armv8/built-in.o
                                        0x98e (size before relaxing)
 .rodata.str1.1
                0x00000000010887a1      0x1eb arch/arm/lib/built-in.o
                                        0x26a (size before relaxing)
 .rodata.str1.1
                0x000000000108898c      0x264 board/amlogic/gxl_p212_v1/built-in.o
                                        0x26a (size before relaxing)
 .rodata.str1.1
                0x0000000001088bf0     0xb736 common/built-in.o
                                       0xc3fe (size before relaxing)
 .rodata.str1.1
                0x0000000001094326      0x50e disk/built-in.o
                                        0x548 (size before relaxing)
 .rodata.str1.1
                0x0000000001094834     0x69c4 drivers/built-in.o
                                       0x7373 (size before relaxing)
 .rodata.str1.1
                0x000000000109b1f8       0x73 drivers/gpio/built-in.o
                                         0x99 (size before relaxing)
 .rodata.str1.1
                0x000000000109b26b      0x425 drivers/i2c/built-in.o
                                        0x44d (size before relaxing)
 .rodata.str1.1
                0x000000000109b690      0x948 drivers/mmc/built-in.o
                                        0xa3e (size before relaxing)
 .rodata.str1.1
                0x000000000109bfd8     0x5624 drivers/nand/built-in.o
                                       0x5df9 (size before relaxing)
 .rodata.str1.1
                0x00000000010a15fc      0x385 drivers/net/built-in.o
                                        0x38b (size before relaxing)
 .rodata.str1.1
                0x00000000010a1981       0xfb drivers/net/phy/built-in.o
                                        0x104 (size before relaxing)
 .rodata.str1.1
                0x00000000010a1a7c       0x89 drivers/serial/built-in.o
                                         0x92 (size before relaxing)
 .rodata.str1.1
                0x00000000010a1b05      0x6a3 drivers/usb/gadget/built-in.o
                                        0x74d (size before relaxing)
 .rodata.str1.1
                0x00000000010a21a8      0x559 drivers/usb/host/built-in.o
                                        0x5bf (size before relaxing)
 .rodata.str1.1
                0x00000000010a2701      0x581 fs/built-in.o
                                        0x662 (size before relaxing)
 .rodata.str1.1
                0x00000000010a2c82      0x5b2 lib/built-in.o
                                        0x60e (size before relaxing)
 .rodata.str1.1
                0x00000000010a3234      0x720 net/built-in.o
                                        0x80e (size before relaxing)

.hash           0x00000000010a3958       0x1c
 .hash          0x00000000010a3958       0x1c arch/arm/cpu/armv8/start.o
                0x00000000010a3978                . = ALIGN (0x8)

.data           0x00000000010a3978     0x99fa
 *(.data*)
 .data.clkrate  0x00000000010a3978       0x10 arch/arm/cpu/armv8/built-in.o
                0x00000000010a3978                clkrate
 .data.clk81_freq.5608
                0x00000000010a3988        0x4 arch/arm/cpu/armv8/built-in.o
 *fill*         0x00000000010a398c        0x4 
 .data.mesongxbb_banks
                0x00000000010a3990      0x1c0 arch/arm/cpu/armv8/built-in.o
 .data.gpio_to_pin
                0x00000000010a3b50      0xa68 arch/arm/cpu/armv8/built-in.o
 .data.setting_enc_clk_val_24
                0x00000000010a45b8      0x2b0 arch/arm/cpu/armv8/built-in.o
 .data.setting_enc_clk_val_30
                0x00000000010a4868      0x260 arch/arm/cpu/armv8/built-in.o
 .data.setting_enc_clk_val_36
                0x00000000010a4ac8      0x260 arch/arm/cpu/armv8/built-in.o
 .data.g_aml_i2c_plat
                0x00000000010a4d28       0xb8 board/amlogic/gxl_p212_v1/built-in.o
                0x00000000010a4d28                g_aml_i2c_plat
 .data.g_usb_config_GXL_skt
                0x00000000010a4de0       0x20 board/amlogic/gxl_p212_v1/built-in.o
                0x00000000010a4de0                g_usb_config_GXL_skt
 .data.hash_algo
                0x00000000010a4e00       0x70 common/built-in.o
 .data.reserved_list
                0x00000000010a4e70      0x108 common/built-in.o
 .data.init_sequence_f
                0x00000000010a4f78      0x108 common/built-in.o
 .data.init_sequence_r
                0x00000000010a5080       0xd0 common/built-in.o
                0x00000000010a5080                init_sequence_r
 .data.bootm_help_text
                0x00000000010a5150      0x4d0 common/built-in.o
 .data.cmd_bootm_sub
                0x00000000010a5620      0x168 common/built-in.o
 .data.booti_help_text
                0x00000000010a5788      0x1c0 common/built-in.o
 .data.first_call
                0x00000000010a5948        0x8 common/built-in.o
 .data.env_name_spec
                0x00000000010a5950        0x8 common/built-in.o
                0x00000000010a5950                env_name_spec
 .data.cmd_bmp_sub
                0x00000000010a5958       0x78 common/built-in.o
 .data.cmd_saradc_sub
                0x00000000010a59d0       0xa0 common/built-in.o
 .data.cmd_saradc_12bit_sub
                0x00000000010a5a70       0xa0 common/built-in.o
 .data.current_channel
                0x00000000010a5b10        0x4 common/built-in.o
 *fill*         0x00000000010a5b14        0x4 
 .data.cmd_ir_sub
                0x00000000010a5b18      0x118 common/built-in.o
 .data.root.5682
                0x00000000010a5c30        0x8 common/built-in.o
 .data.tabs.5765
                0x00000000010a5c38       0x28 common/built-in.o
 .data.fdt_help_text
                0x00000000010a5c60      0x5e8 common/built-in.o
 .data.i2c_help_text
                0x00000000010a6248      0x2d8 common/built-in.o
 .data.cmd_i2c_sub
                0x00000000010a6520      0x1b8 common/built-in.o
 .data.i2c_dp_last_length
                0x00000000010a66d8        0x4 common/built-in.o
 .data.dp_last_length
                0x00000000010a66dc        0x4 common/built-in.o
 .data.curr_device
                0x00000000010a66e0        0x4 common/built-in.o
 *fill*         0x00000000010a66e4        0x4 
 .data.cmd_mmc  0x00000000010a66e8      0x1e0 common/built-in.o
 .data.cmd_store_sub
                0x00000000010a68c8      0x230 common/built-in.o
 .data.cmd_imgread_sub
                0x00000000010a6af8       0xa0 common/built-in.o
 .data.usb_stor_curr_dev
                0x00000000010a6b98        0x4 common/built-in.o
 *fill*         0x00000000010a6b9c        0x4 
 .data.cmd_vpu_sub
                0x00000000010a6ba0       0xc8 common/built-in.o
 .data.efuse_help_text
                0x00000000010a6c68      0x1a8 common/built-in.o
 .data.query_text
                0x00000000010a6e10       0xf0 common/built-in.o
 .data.saradc_vref
                0x00000000010a6f00        0x4 common/built-in.o
                0x00000000010a6f00                saradc_vref
 .data.temp_base
                0x00000000010a6f04        0x4 common/built-in.o
                0x00000000010a6f04                temp_base
 .data.env_help_text
                0x00000000010a6f08      0x1f8 common/built-in.o
 .data.env_id   0x00000000010a7100        0x4 common/built-in.o
 *fill*         0x00000000010a7104        0x4 
 .data.cmd_env_sub
                0x00000000010a7108      0x140 common/built-in.o
 .data.env_htab
                0x00000000010a7248       0x18 common/built-in.o
                0x00000000010a7248                env_htab
 .data.av_      0x00000000010a7260      0x810 common/built-in.o
 .data.sbrk_base
                0x00000000010a7a70        0x8 common/built-in.o
 .data.trim_threshold
                0x00000000010a7a78        0x8 common/built-in.o
 .data.load_addr
                0x00000000010a7a80        0x8 common/built-in.o
                0x00000000010a7a80                load_addr
 .data.stdio_names
                0x00000000010a7a88       0x18 common/built-in.o
                0x00000000010a7a88                stdio_names
 .data.cmd_vpp_sub
                0x00000000010a7aa0       0x28 common/built-in.o
 .data.fmt_para_3840x2160p60_16x9
                0x00000000010a7ac8       0x78 common/built-in.o
 .data.fmt_para_1920x1080p25_16x9
                0x00000000010a7b40       0x78 common/built-in.o
 .data.fmt_para_3840x2160p24_16x9
                0x00000000010a7bb8       0x78 common/built-in.o
 .data.fmt_para_1280x720p60_16x9
                0x00000000010a7c30       0x78 common/built-in.o
 .data.fmt_para_1920x1080i50_16x9
                0x00000000010a7ca8       0x78 common/built-in.o
 .data.fmt_para_4096x2160p60_y420_256x135
                0x00000000010a7d20       0x78 common/built-in.o
 .data.fmt_para_4096x2160p30_256x135
                0x00000000010a7d98       0x78 common/built-in.o
 .data.fmt_para_720x480i60_16x9
                0x00000000010a7e10       0x78 common/built-in.o
 .data.fmt_para_1920x1080p30_16x9
                0x00000000010a7e88       0x78 common/built-in.o
 .data.fmt_para_3840x2160p30_16x9
                0x00000000010a7f00       0x78 common/built-in.o
 .data.fmt_para_720x576p50_16x9
                0x00000000010a7f78       0x78 common/built-in.o
 .data.fmt_para_3840x2160p60_y420_16x9
                0x00000000010a7ff0       0x78 common/built-in.o
 .data.fmt_para_1920x1080i60_16x9
                0x00000000010a8068       0x78 common/built-in.o
 .data.fmt_para_4096x2160p24_256x135
                0x00000000010a80e0       0x78 common/built-in.o
 .data.fmt_para_3840x2160p50_y420_16x9
                0x00000000010a8158       0x78 common/built-in.o
 .data.fmt_para_1920x1080p50_16x9
                0x00000000010a81d0       0x78 common/built-in.o
 .data.fmt_para_720x576i50_16x9
                0x00000000010a8248       0x78 common/built-in.o
 .data.fmt_para_3840x2160p25_16x9
                0x00000000010a82c0       0x78 common/built-in.o
 .data.fmt_para_4096x2160p60_256x135
                0x00000000010a8338       0x78 common/built-in.o
 .data.fmt_para_4096x2160p50_y420_256x135
                0x00000000010a83b0       0x78 common/built-in.o
 .data.fmt_para_720x480p60_16x9
                0x00000000010a8428       0x78 common/built-in.o
 .data.fmt_para_3840x2160p50_16x9
                0x00000000010a84a0       0x78 common/built-in.o
 .data.fmt_para_4096x2160p25_256x135
                0x00000000010a8518       0x78 common/built-in.o
 .data.fmt_para_1280x720p50_16x9
                0x00000000010a8590       0x78 common/built-in.o
 .data.fmt_para_1920x1080p60_16x9
                0x00000000010a8608       0x78 common/built-in.o
 .data.fmt_para_1920x1080p24_16x9
                0x00000000010a8680       0x78 common/built-in.o
 .data.fmt_para_4096x2160p50_256x135
                0x00000000010a86f8       0x78 common/built-in.o
 .data.cmd_hdmi_sub
                0x00000000010a8770      0x168 common/built-in.o
 .data.cmd_osd_sub
                0x00000000010a88d8      0x118 common/built-in.o
 .data.cmd_cvbs_sub
                0x00000000010a89f0       0xa0 common/built-in.o
 .data.cmd_vout_sub
                0x00000000010a8a90       0x50 common/built-in.o
 .data.cmd_rsvmem_sub
                0x00000000010a8ae0       0x50 common/built-in.o
 .data.vpu_conf
                0x00000000010a8b30       0x10 drivers/built-in.o
 .data.video_oetf_b_mapping
                0x00000000010a8b40      0x488 drivers/built-in.o
 .data.oetf_41_linear_mapping
                0x00000000010a8fc8       0xa8 drivers/built-in.o
 .data.video_eotf_b_mapping
                0x00000000010a9070       0x88 drivers/built-in.o
 .data.osd_oetf_r_mapping
                0x00000000010a90f8       0xa8 drivers/built-in.o
 .data.osd_oetf_g_mapping
                0x00000000010a91a0       0xa8 drivers/built-in.o
 .data.osd_eotf_r_mapping
                0x00000000010a9248       0x88 drivers/built-in.o
 .data.osd_eotf_g_mapping
                0x00000000010a92d0       0x88 drivers/built-in.o
 .data.osd_oetf_b_mapping
                0x00000000010a9358       0xa8 drivers/built-in.o
 .data.osd_eotf_b_mapping
                0x00000000010a9400       0x88 drivers/built-in.o
 .data.video_eotf_coeff
                0x00000000010a9488       0x28 drivers/built-in.o
 .data.post_matrix_coeff
                0x00000000010a94b0       0x60 drivers/built-in.o
 .data.vd1_matrix_coeff
                0x00000000010a9510       0x60 drivers/built-in.o
 .data.RGB709_to_YUV709l_coeff
                0x00000000010a9570       0x60 drivers/built-in.o
 .data.eotf_bypass_coeff
                0x00000000010a95d0       0x28 drivers/built-in.o
 .data.osd_eotf_coeff
                0x00000000010a95f8       0x28 drivers/built-in.o
 .data.vd2_matrix_coeff
                0x00000000010a9620       0x60 drivers/built-in.o
 .data.xvycc_matrix_coeff
                0x00000000010a9680       0x60 drivers/built-in.o
 .data.osd_matrix_coeff
                0x00000000010a96e0       0x60 drivers/built-in.o
 .data.video_oetf_r_mapping
                0x00000000010a9740      0x488 drivers/built-in.o
 .data.video_oetf_g_mapping
                0x00000000010a9bc8      0x488 drivers/built-in.o
 .data.eotf_33_linear_mapping
                0x00000000010aa050       0x88 drivers/built-in.o
 .data.video_eotf_r_mapping
                0x00000000010aa0d8       0x88 drivers/built-in.o
 .data.video_eotf_g_mapping
                0x00000000010aa160       0x88 drivers/built-in.o
 .data._SecukeyOps
                0x00000000010aa1e8       0x40 drivers/built-in.o
 .data._efuseKeyOps
                0x00000000010aa228       0x40 drivers/built-in.o
 .data.cmd_keyman_sub
                0x00000000010aa268       0xc8 drivers/built-in.o
 .data.unify_key_info
                0x00000000010aa330       0x10 drivers/built-in.o
 .data._is_first_setup_out_in_cmd.7715
                0x00000000010aa340        0x4 drivers/built-in.o
 *fill*         0x00000000010aa344        0x4 
 .data._usbDownPartImgType
                0x00000000010aa348        0x8 drivers/built-in.o
                0x00000000010aa348                _usbDownPartImgType
 .data._bufManager
                0x00000000010aa350       0x40 drivers/built-in.o
 .data._hFile   0x00000000010aa390        0x4 drivers/built-in.o
 .data.cur_part
                0x00000000010aa394        0x4 drivers/built-in.o
 .data.g_sdcBurnPara
                0x00000000010aa398      0x538 drivers/built-in.o
                0x00000000010aa398                g_sdcBurnPara
 .data.bmpsLoadAddr.6159
                0x00000000010aa8d0        0x8 drivers/built-in.o
 .data.osd_filter_coefs_3point_bspline
                0x00000000010aa8d8       0x88 drivers/built-in.o
 .data.osd_filter_coefs_2point_binilear
                0x00000000010aa960       0x88 drivers/built-in.o
 .data.osd_filter_coefs_3point_triangle_sharp
                0x00000000010aa9e8       0x88 drivers/built-in.o
 .data.osd_filter_coefs_bilinear
                0x00000000010aaa70       0x88 drivers/built-in.o
 .data.osd_filter_coefs_bicubic_sharp
                0x00000000010aaaf8       0x88 drivers/built-in.o
 .data.osd_filter_coefs_4point_triangle
                0x00000000010aab80       0x88 drivers/built-in.o
 .data.use_v_filter_mode
                0x00000000010aac08        0x4 drivers/built-in.o
 .data.use_h_filter_mode
                0x00000000010aac0c        0x4 drivers/built-in.o
 .data.osd_filter_coefs_3point_triangle
                0x00000000010aac10       0x88 drivers/built-in.o
 .data.osd_filter_coefs_bicubic
                0x00000000010aac98       0x88 drivers/built-in.o
 .data.vpp_filter_coefs_4point_bspline
                0x00000000010aad20       0x88 drivers/built-in.o
 .data.tv_info  0x00000000010aada8       0x38 drivers/built-in.o
                0x00000000010aada8                tv_info
 .data.g_vmode  0x00000000010aade0        0x4 drivers/built-in.o
 *fill*         0x00000000010aade4        0x4 
 .data.cvbs_clk_regs
                0x00000000010aade8       0x30 drivers/built-in.o
                0x00000000010aade8                cvbs_clk_regs
 .data.cvbs_mode
                0x00000000010aae18        0x4 drivers/built-in.o
                0x00000000010aae18                cvbs_mode
 *fill*         0x00000000010aae1c        0x4 
 .data.storagekey_info
                0x00000000010aae20       0x10 drivers/built-in.o
 .data.ci_nec_fe01
                0x00000000010aae30       0x38 drivers/built-in.o
                0x00000000010aae30                ci_nec_fe01
 .data.protocol_name
                0x00000000010aae68        0x8 drivers/built-in.o
                0x00000000010aae68                protocol_name
 .data.irblaster_drviver
                0x00000000010aae70      0x870 drivers/built-in.o
 .data.g_aml_i2c_m1_ops
                0x00000000010ab6e0       0x28 drivers/i2c/built-in.o
 .data.cur_dev_num
                0x00000000010ab708        0x4 drivers/mmc/built-in.o
 *fill*         0x00000000010ab70c        0x4 
 .data.ext_csd_w
                0x00000000010ab710       0x30 drivers/mmc/built-in.o
                0x00000000010ab710                ext_csd_w
 .data.sd_emmc_base_addr
                0x00000000010ab740       0x18 drivers/mmc/built-in.o
                0x00000000010ab740                sd_emmc_base_addr
 .data.aml_sd_emmc_ports
                0x00000000010ab758      0x198 drivers/mmc/built-in.o
 .data.device_boot_flag
                0x00000000010ab8f0        0x4 drivers/mmc/built-in.o
                0x00000000010ab8f0                device_boot_flag
 *fill*         0x00000000010ab8f4        0x4 
 .data.virtual_partition_table
                0x00000000010ab8f8       0x80 drivers/mmc/built-in.o
                0x00000000010ab8f8                virtual_partition_table
 .data.emmc_partition_table
                0x00000000010ab978       0xa0 drivers/mmc/built-in.o
                0x00000000010ab978                emmc_partition_table
 .data.def_partition_table
                0x00000000010aba18      0x1b8 drivers/nand/built-in.o
                0x00000000010aba18                def_partition_table
 .data.bch_list_m8
                0x00000000010abbd0      0x200 drivers/nand/built-in.o
                0x00000000010abbd0                bch_list_m8
 .data.amlnand_help_text
                0x00000000010abdd0      0x570 drivers/nand/built-in.o
 .data.nand_protect
                0x00000000010ac340        0x4 drivers/nand/built-in.o
 .data.dtb_erase_blk
                0x00000000010ac344        0x4 drivers/nand/built-in.o
                0x00000000010ac344                dtb_erase_blk
 .data.flash_ids_mlc
                0x00000000010ac348      0xae0 drivers/nand/built-in.o
                0x00000000010ac348                flash_ids_mlc
 .data.pagelist_1ynm_hynix256
                0x00000000010ace28       0x80 drivers/nand/built-in.o
                0x00000000010ace28                pagelist_1ynm_hynix256
 .data.pagelist_hynix256
                0x00000000010acea8       0x80 drivers/nand/built-in.o
 .data.phy_drivers
                0x00000000010acf28       0x10 drivers/net/phy/built-in.o
 .data.genphy_driver
                0x00000000010acf38       0x58 drivers/net/phy/built-in.o
 .data.device_UART_PORT_AO
                0x00000000010acf90       0x50 drivers/serial/built-in.o
 .data.device_desc
                0x00000000010acfe0       0x18 drivers/usb/gadget/built-in.o
 .data.g_dnl_string_tab
                0x00000000010acff8       0x10 drivers/usb/gadget/built-in.o
 .data.g_dnl_serial
                0x00000000010ad008       0x20 drivers/usb/gadget/built-in.o
 .data.g_dnl_composite_strings
                0x00000000010ad028       0x10 drivers/usb/gadget/built-in.o
 .data.g_dnl_driver
                0x00000000010ad038       0x40 drivers/usb/gadget/built-in.o
 .data.composite_driver
                0x00000000010ad078       0x38 drivers/usb/gadget/built-in.o
 .data.g_dnl_string_defs
                0x00000000010ad0b0       0x40 drivers/usb/gadget/built-in.o
 .data.hs_ep_out
                0x00000000010ad0f0       0x10 drivers/usb/gadget/built-in.o
 .data.fastboot_string_defs
                0x00000000010ad100       0x20 drivers/usb/gadget/built-in.o
 .data.fb_runtime_descs
                0x00000000010ad120       0x20 drivers/usb/gadget/built-in.o
 .data.fastboot_strings
                0x00000000010ad140       0x10 drivers/usb/gadget/built-in.o
 .data.fs_ep_out
                0x00000000010ad150       0x10 drivers/usb/gadget/built-in.o
 .data.fs_ep_in
                0x00000000010ad160       0x10 drivers/usb/gadget/built-in.o
 .data.stringtab_fastboot
                0x00000000010ad170       0x10 drivers/usb/gadget/built-in.o
 .data.interface_desc
                0x00000000010ad180       0x10 drivers/usb/gadget/built-in.o
 .data.dwc_otg_pcd_ep_ops
                0x00000000010ad190       0x48 drivers/usb/gadget/built-in.o
 .data.descriptor
                0x00000000010ad1d8       0x40 drivers/usb/host/built-in.o
 .data.fstypes  0x00000000010ad218       0xd8 fs/built-in.o
 .data.ext4fs_indir3_blkno
                0x00000000010ad2f0        0x4 fs/built-in.o
                0x00000000010ad2f0                ext4fs_indir3_blkno
 .data.ext4fs_indir1_blkno
                0x00000000010ad2f4        0x4 fs/built-in.o
                0x00000000010ad2f4                ext4fs_indir1_blkno
 .data.ext4fs_indir2_blkno
                0x00000000010ad2f8        0x4 fs/built-in.o
                0x00000000010ad2f8                ext4fs_indir2_blkno
 *fill*         0x00000000010ad2fc        0x4 
 .data.sha256_padding
                0x00000000010ad300       0x40 lib/built-in.o
 .data.NetOurNativeVLAN
                0x00000000010ad340        0x2 net/built-in.o
                0x00000000010ad340                NetOurNativeVLAN
 *fill*         0x00000000010ad342        0x6 
 .data.NetBcastAddr
                0x00000000010ad348        0x8 net/built-in.o
                0x00000000010ad348                NetBcastAddr
 .data.NetOurVLAN
                0x00000000010ad350        0x2 net/built-in.o
                0x00000000010ad350                NetOurVLAN
 *fill*         0x00000000010ad352        0x2 
 .data.first_call.5803
                0x00000000010ad354        0x4 net/built-in.o
 .data.TftpTimeoutCountMax
                0x00000000010ad358        0x4 net/built-in.o
 .data.TftpRRQTimeoutCountMax
                0x00000000010ad35c        0x4 net/built-in.o
                0x00000000010ad35c                TftpRRQTimeoutCountMax
 .data.TftpBlkSizeOption
                0x00000000010ad360        0x2 net/built-in.o
 *fill*         0x00000000010ad362        0x6 
 .data.TftpTimeoutMSecs
                0x00000000010ad368        0x8 net/built-in.o
 .data.TftpBlkSize
                0x00000000010ad370        0x2 net/built-in.o

.got            0x00000000010ad378        0x8
 .got           0x00000000010ad378        0x8 arch/arm/cpu/armv8/start.o
                0x00000000010ad378                _GLOBAL_OFFSET_TABLE_

.got.plt        0x00000000010ad380       0x18
 .got.plt       0x00000000010ad380       0x18 arch/arm/cpu/armv8/start.o
                0x00000000010ad398                . = ALIGN (0x8)
                0x00000000010ad398                . = .
                0x00000000010ad398                . = ALIGN (0x8)

.u_boot_list    0x00000000010ad398     0x1310
 *(SORT(.u_boot_list*))
 .u_boot_list_2_cmd_1
                0x00000000010ad398        0x0 common/built-in.o
 .u_boot_list_2_cmd_2_aml_sysrecovery
                0x00000000010ad398       0x28 drivers/built-in.o
                0x00000000010ad398                _u_boot_list_2_cmd_2_aml_sysrecovery
 .u_boot_list_2_cmd_2_amlmmc
                0x00000000010ad3c0       0x28 common/built-in.o
                0x00000000010ad3c0                _u_boot_list_2_cmd_2_amlmmc
 .u_boot_list_2_cmd_2_amlnf
                0x00000000010ad3e8       0x28 drivers/nand/built-in.o
                0x00000000010ad3e8                _u_boot_list_2_cmd_2_amlnf
 .u_boot_list_2_cmd_2_amlnf_test
                0x00000000010ad410       0x28 drivers/nand/built-in.o
                0x00000000010ad410                _u_boot_list_2_cmd_2_amlnf_test
 .u_boot_list_2_cmd_2_autoscr
                0x00000000010ad438       0x28 common/built-in.o
                0x00000000010ad438                _u_boot_list_2_cmd_2_autoscr
 .u_boot_list_2_cmd_2_base
                0x00000000010ad460       0x28 common/built-in.o
                0x00000000010ad460                _u_boot_list_2_cmd_2_base
 .u_boot_list_2_cmd_2_bcb
                0x00000000010ad488       0x28 common/built-in.o
                0x00000000010ad488                _u_boot_list_2_cmd_2_bcb
 .u_boot_list_2_cmd_2_bmp
                0x00000000010ad4b0       0x28 common/built-in.o
                0x00000000010ad4b0                _u_boot_list_2_cmd_2_bmp
 .u_boot_list_2_cmd_2_booti
                0x00000000010ad4d8       0x28 common/built-in.o
                0x00000000010ad4d8                _u_boot_list_2_cmd_2_booti
 .u_boot_list_2_cmd_2_bootm
                0x00000000010ad500       0x28 common/built-in.o
                0x00000000010ad500                _u_boot_list_2_cmd_2_bootm
 .u_boot_list_2_cmd_2_bootp
                0x00000000010ad528       0x28 common/built-in.o
                0x00000000010ad528                _u_boot_list_2_cmd_2_bootp
 .u_boot_list_2_cmd_2_cbusreg
                0x00000000010ad550       0x28 drivers/net/built-in.o
                0x00000000010ad550                _u_boot_list_2_cmd_2_cbusreg
 .u_boot_list_2_cmd_2_chipid
                0x00000000010ad578       0x28 common/built-in.o
                0x00000000010ad578                _u_boot_list_2_cmd_2_chipid
 .u_boot_list_2_cmd_2_clkmsr
                0x00000000010ad5a0       0x28 common/built-in.o
                0x00000000010ad5a0                _u_boot_list_2_cmd_2_clkmsr
 .u_boot_list_2_cmd_2_cmp
                0x00000000010ad5c8       0x28 common/built-in.o
                0x00000000010ad5c8                _u_boot_list_2_cmd_2_cmp
 .u_boot_list_2_cmd_2_cp
                0x00000000010ad5f0       0x28 common/built-in.o
                0x00000000010ad5f0                _u_boot_list_2_cmd_2_cp
 .u_boot_list_2_cmd_2_crc32
                0x00000000010ad618       0x28 common/built-in.o
                0x00000000010ad618                _u_boot_list_2_cmd_2_crc32
 .u_boot_list_2_cmd_2_cvbs
                0x00000000010ad640       0x28 common/built-in.o
                0x00000000010ad640                _u_boot_list_2_cmd_2_cvbs
 .u_boot_list_2_cmd_2_dcache
                0x00000000010ad668       0x28 common/built-in.o
                0x00000000010ad668                _u_boot_list_2_cmd_2_dcache
 .u_boot_list_2_cmd_2_defenv_reserv
                0x00000000010ad690       0x28 common/built-in.o
                0x00000000010ad690                _u_boot_list_2_cmd_2_defenv_reserv
 .u_boot_list_2_cmd_2_dhcp
                0x00000000010ad6b8       0x28 common/built-in.o
                0x00000000010ad6b8                _u_boot_list_2_cmd_2_dhcp
 .u_boot_list_2_cmd_2_echo
                0x00000000010ad6e0       0x28 common/built-in.o
                0x00000000010ad6e0                _u_boot_list_2_cmd_2_echo
 .u_boot_list_2_cmd_2_efuse
                0x00000000010ad708       0x28 common/built-in.o
                0x00000000010ad708                _u_boot_list_2_cmd_2_efuse
 .u_boot_list_2_cmd_2_efuse_user
                0x00000000010ad730       0x28 drivers/built-in.o
                0x00000000010ad730                _u_boot_list_2_cmd_2_efuse_user
 .u_boot_list_2_cmd_2_emmc
                0x00000000010ad758       0x28 common/built-in.o
                0x00000000010ad758                _u_boot_list_2_cmd_2_emmc
 .u_boot_list_2_cmd_2_env
                0x00000000010ad780       0x28 common/built-in.o
                0x00000000010ad780                _u_boot_list_2_cmd_2_env
 .u_boot_list_2_cmd_2_exit
                0x00000000010ad7a8       0x28 common/built-in.o
                0x00000000010ad7a8                _u_boot_list_2_cmd_2_exit
 .u_boot_list_2_cmd_2_ext4load
                0x00000000010ad7d0       0x28 common/built-in.o
                0x00000000010ad7d0                _u_boot_list_2_cmd_2_ext4load
 .u_boot_list_2_cmd_2_ext4ls
                0x00000000010ad7f8       0x28 common/built-in.o
                0x00000000010ad7f8                _u_boot_list_2_cmd_2_ext4ls
 .u_boot_list_2_cmd_2_ext4size
                0x00000000010ad820       0x28 common/built-in.o
                0x00000000010ad820                _u_boot_list_2_cmd_2_ext4size
 .u_boot_list_2_cmd_2_false
                0x00000000010ad848       0x28 common/built-in.o
                0x00000000010ad848                _u_boot_list_2_cmd_2_false
 .u_boot_list_2_cmd_2_fastboot
                0x00000000010ad870       0x28 common/built-in.o
                0x00000000010ad870                _u_boot_list_2_cmd_2_fastboot
 .u_boot_list_2_cmd_2_fatinfo
                0x00000000010ad898       0x28 common/built-in.o
                0x00000000010ad898                _u_boot_list_2_cmd_2_fatinfo
 .u_boot_list_2_cmd_2_fatload
                0x00000000010ad8c0       0x28 common/built-in.o
                0x00000000010ad8c0                _u_boot_list_2_cmd_2_fatload
 .u_boot_list_2_cmd_2_fatls
                0x00000000010ad8e8       0x28 common/built-in.o
                0x00000000010ad8e8                _u_boot_list_2_cmd_2_fatls
 .u_boot_list_2_cmd_2_fatsize
                0x00000000010ad910       0x28 common/built-in.o
                0x00000000010ad910                _u_boot_list_2_cmd_2_fatsize
 .u_boot_list_2_cmd_2_fdt
                0x00000000010ad938       0x28 common/built-in.o
                0x00000000010ad938                _u_boot_list_2_cmd_2_fdt
 .u_boot_list_2_cmd_2_forceupdate
                0x00000000010ad960       0x28 common/built-in.o
                0x00000000010ad960                _u_boot_list_2_cmd_2_forceupdate
 .u_boot_list_2_cmd_2_get_rebootmode
                0x00000000010ad988       0x28 common/built-in.o
                0x00000000010ad988                _u_boot_list_2_cmd_2_get_rebootmode
 .u_boot_list_2_cmd_2_get_valid_slot
                0x00000000010ad9b0       0x28 common/built-in.o
                0x00000000010ad9b0                _u_boot_list_2_cmd_2_get_valid_slot
 .u_boot_list_2_cmd_2_go
                0x00000000010ad9d8       0x28 common/built-in.o
                0x00000000010ad9d8                _u_boot_list_2_cmd_2_go
 .u_boot_list_2_cmd_2_gpio
                0x00000000010ada00       0x28 common/built-in.o
                0x00000000010ada00                _u_boot_list_2_cmd_2_gpio
 .u_boot_list_2_cmd_2_hdmitx
                0x00000000010ada28       0x28 common/built-in.o
                0x00000000010ada28                _u_boot_list_2_cmd_2_hdmitx
 .u_boot_list_2_cmd_2_help
                0x00000000010ada50       0x28 common/built-in.o
                0x00000000010ada50                _u_boot_list_2_cmd_2_help
 .u_boot_list_2_cmd_2_i2c
                0x00000000010ada78       0x28 common/built-in.o
                0x00000000010ada78                _u_boot_list_2_cmd_2_i2c
 .u_boot_list_2_cmd_2_icache
                0x00000000010adaa0       0x28 common/built-in.o
                0x00000000010adaa0                _u_boot_list_2_cmd_2_icache
 .u_boot_list_2_cmd_2_imgread
                0x00000000010adac8       0x28 common/built-in.o
                0x00000000010adac8                _u_boot_list_2_cmd_2_imgread
 .u_boot_list_2_cmd_2_irblaster
                0x00000000010adaf0       0x28 common/built-in.o
                0x00000000010adaf0                _u_boot_list_2_cmd_2_irblaster
 .u_boot_list_2_cmd_2_itest
                0x00000000010adb18       0x28 common/built-in.o
                0x00000000010adb18                _u_boot_list_2_cmd_2_itest
 .u_boot_list_2_cmd_2_jtagoff
                0x00000000010adb40       0x28 common/built-in.o
                0x00000000010adb40                _u_boot_list_2_cmd_2_jtagoff
 .u_boot_list_2_cmd_2_jtagon
                0x00000000010adb68       0x28 common/built-in.o
                0x00000000010adb68                _u_boot_list_2_cmd_2_jtagon
 .u_boot_list_2_cmd_2_keyman
                0x00000000010adb90       0x28 drivers/built-in.o
                0x00000000010adb90                _u_boot_list_2_cmd_2_keyman
 .u_boot_list_2_cmd_2_keyunify
                0x00000000010adbb8       0x28 drivers/built-in.o
                0x00000000010adbb8                _u_boot_list_2_cmd_2_keyunify
 .u_boot_list_2_cmd_2_loop
                0x00000000010adbe0       0x28 common/built-in.o
                0x00000000010adbe0                _u_boot_list_2_cmd_2_loop
 .u_boot_list_2_cmd_2_macreg
                0x00000000010adc08       0x28 drivers/net/built-in.o
                0x00000000010adc08                _u_boot_list_2_cmd_2_macreg
 .u_boot_list_2_cmd_2_md
                0x00000000010adc30       0x28 common/built-in.o
                0x00000000010adc30                _u_boot_list_2_cmd_2_md
 .u_boot_list_2_cmd_2_mm
                0x00000000010adc58       0x28 common/built-in.o
                0x00000000010adc58                _u_boot_list_2_cmd_2_mm
 .u_boot_list_2_cmd_2_mmc
                0x00000000010adc80       0x28 common/built-in.o
                0x00000000010adc80                _u_boot_list_2_cmd_2_mmc
 .u_boot_list_2_cmd_2_mmcinfo
                0x00000000010adca8       0x28 common/built-in.o
                0x00000000010adca8                _u_boot_list_2_cmd_2_mmcinfo
 .u_boot_list_2_cmd_2_mw
                0x00000000010adcd0       0x28 common/built-in.o
                0x00000000010adcd0                _u_boot_list_2_cmd_2_mw
 .u_boot_list_2_cmd_2_mwm
                0x00000000010adcf8       0x28 common/built-in.o
                0x00000000010adcf8                _u_boot_list_2_cmd_2_mwm
 .u_boot_list_2_cmd_2_nm
                0x00000000010add20       0x28 common/built-in.o
                0x00000000010add20                _u_boot_list_2_cmd_2_nm
 .u_boot_list_2_cmd_2_open_scp_log
                0x00000000010add48       0x28 common/built-in.o
                0x00000000010add48                _u_boot_list_2_cmd_2_open_scp_log
 .u_boot_list_2_cmd_2_osd
                0x00000000010add70       0x28 common/built-in.o
                0x00000000010add70                _u_boot_list_2_cmd_2_osd
 .u_boot_list_2_cmd_2_phyreg
                0x00000000010add98       0x28 drivers/net/built-in.o
                0x00000000010add98                _u_boot_list_2_cmd_2_phyreg
 .u_boot_list_2_cmd_2_ping
                0x00000000010addc0       0x28 common/built-in.o
                0x00000000010addc0                _u_boot_list_2_cmd_2_ping
 .u_boot_list_2_cmd_2_printenv
                0x00000000010adde8       0x28 common/built-in.o
                0x00000000010adde8                _u_boot_list_2_cmd_2_printenv
 .u_boot_list_2_cmd_2_query
                0x00000000010ade10       0x28 common/built-in.o
                0x00000000010ade10                _u_boot_list_2_cmd_2_query
 .u_boot_list_2_cmd_2_question_mark
                0x00000000010ade38       0x28 common/built-in.o
                0x00000000010ade38                _u_boot_list_2_cmd_2_question_mark
 .u_boot_list_2_cmd_2_rarpboot
                0x00000000010ade60       0x28 common/built-in.o
                0x00000000010ade60                _u_boot_list_2_cmd_2_rarpboot
 .u_boot_list_2_cmd_2_read_temp
                0x00000000010ade88       0x28 common/built-in.o
                0x00000000010ade88                _u_boot_list_2_cmd_2_read_temp
 .u_boot_list_2_cmd_2_reboot
                0x00000000010adeb0       0x28 common/built-in.o
                0x00000000010adeb0                _u_boot_list_2_cmd_2_reboot
 .u_boot_list_2_cmd_2_reset
                0x00000000010aded8       0x28 common/built-in.o
                0x00000000010aded8                _u_boot_list_2_cmd_2_reset
 .u_boot_list_2_cmd_2_rsvmem
                0x00000000010adf00       0x28 common/built-in.o
                0x00000000010adf00                _u_boot_list_2_cmd_2_rsvmem
 .u_boot_list_2_cmd_2_run
                0x00000000010adf28       0x28 common/built-in.o
                0x00000000010adf28                _u_boot_list_2_cmd_2_run
 .u_boot_list_2_cmd_2_saradc
                0x00000000010adf50       0x28 common/built-in.o
                0x00000000010adf50                _u_boot_list_2_cmd_2_saradc
 .u_boot_list_2_cmd_2_saradc_12bit
                0x00000000010adf78       0x28 common/built-in.o
                0x00000000010adf78                _u_boot_list_2_cmd_2_saradc_12bit
 .u_boot_list_2_cmd_2_saveenv
                0x00000000010adfa0       0x28 common/built-in.o
                0x00000000010adfa0                _u_boot_list_2_cmd_2_saveenv
 .u_boot_list_2_cmd_2_sdc_burn
                0x00000000010adfc8       0x28 drivers/built-in.o
                0x00000000010adfc8                _u_boot_list_2_cmd_2_sdc_burn
 .u_boot_list_2_cmd_2_sdc_update
                0x00000000010adff0       0x28 drivers/built-in.o
                0x00000000010adff0                _u_boot_list_2_cmd_2_sdc_update
 .u_boot_list_2_cmd_2_set_active_slot
                0x00000000010ae018       0x28 common/built-in.o
                0x00000000010ae018                _u_boot_list_2_cmd_2_set_active_slot
 .u_boot_list_2_cmd_2_set_trim_base
                0x00000000010ae040       0x28 common/built-in.o
                0x00000000010ae040                _u_boot_list_2_cmd_2_set_trim_base
 .u_boot_list_2_cmd_2_set_usb_boot
                0x00000000010ae068       0x28 common/built-in.o
                0x00000000010ae068                _u_boot_list_2_cmd_2_set_usb_boot
 .u_boot_list_2_cmd_2_setenv
                0x00000000010ae090       0x28 common/built-in.o
                0x00000000010ae090                _u_boot_list_2_cmd_2_setenv
 .u_boot_list_2_cmd_2_showvar
                0x00000000010ae0b8       0x28 common/built-in.o
                0x00000000010ae0b8                _u_boot_list_2_cmd_2_showvar
 .u_boot_list_2_cmd_2_silent
                0x00000000010ae0e0       0x28 common/built-in.o
                0x00000000010ae0e0                _u_boot_list_2_cmd_2_silent
 .u_boot_list_2_cmd_2_sleep
                0x00000000010ae108       0x28 common/built-in.o
                0x00000000010ae108                _u_boot_list_2_cmd_2_sleep
 .u_boot_list_2_cmd_2_store
                0x00000000010ae130       0x28 common/built-in.o
                0x00000000010ae130                _u_boot_list_2_cmd_2_store
 .u_boot_list_2_cmd_2_systemoff
                0x00000000010ae158       0x28 common/built-in.o
                0x00000000010ae158                _u_boot_list_2_cmd_2_systemoff
 .u_boot_list_2_cmd_2_temp_triming
                0x00000000010ae180       0x28 common/built-in.o
                0x00000000010ae180                _u_boot_list_2_cmd_2_temp_triming
 .u_boot_list_2_cmd_2_test
                0x00000000010ae1a8       0x28 common/built-in.o
                0x00000000010ae1a8                _u_boot_list_2_cmd_2_test
 .u_boot_list_2_cmd_2_tftpboot
                0x00000000010ae1d0       0x28 common/built-in.o
                0x00000000010ae1d0                _u_boot_list_2_cmd_2_tftpboot
 .u_boot_list_2_cmd_2_true
                0x00000000010ae1f8       0x28 common/built-in.o
                0x00000000010ae1f8                _u_boot_list_2_cmd_2_true
 .u_boot_list_2_cmd_2_unpackimg
                0x00000000010ae220       0x28 common/built-in.o
                0x00000000010ae220                _u_boot_list_2_cmd_2_unpackimg
 .u_boot_list_2_cmd_2_update
                0x00000000010ae248       0x28 drivers/built-in.o
                0x00000000010ae248                _u_boot_list_2_cmd_2_update
 .u_boot_list_2_cmd_2_usb
                0x00000000010ae270       0x28 common/built-in.o
                0x00000000010ae270                _u_boot_list_2_cmd_2_usb
 .u_boot_list_2_cmd_2_usb_burn
                0x00000000010ae298       0x28 drivers/built-in.o
                0x00000000010ae298                _u_boot_list_2_cmd_2_usb_burn
 .u_boot_list_2_cmd_2_usb_update
                0x00000000010ae2c0       0x28 drivers/built-in.o
                0x00000000010ae2c0                _u_boot_list_2_cmd_2_usb_update
 .u_boot_list_2_cmd_2_usbboot
                0x00000000010ae2e8       0x28 common/built-in.o
                0x00000000010ae2e8                _u_boot_list_2_cmd_2_usbboot
 .u_boot_list_2_cmd_2_version
                0x00000000010ae310       0x28 common/built-in.o
                0x00000000010ae310                _u_boot_list_2_cmd_2_version
 .u_boot_list_2_cmd_2_vout
                0x00000000010ae338       0x28 common/built-in.o
                0x00000000010ae338                _u_boot_list_2_cmd_2_vout
 .u_boot_list_2_cmd_2_vpp
                0x00000000010ae360       0x28 common/built-in.o
                0x00000000010ae360                _u_boot_list_2_cmd_2_vpp
 .u_boot_list_2_cmd_2_vpu
                0x00000000010ae388       0x28 common/built-in.o
                0x00000000010ae388                _u_boot_list_2_cmd_2_vpu
 .u_boot_list_2_cmd_2_wipeisb
                0x00000000010ae3b0       0x28 common/built-in.o
                0x00000000010ae3b0                _u_boot_list_2_cmd_2_wipeisb
 .u_boot_list_2_cmd_2_write_trim
                0x00000000010ae3d8       0x28 common/built-in.o
                0x00000000010ae3d8                _u_boot_list_2_cmd_2_write_trim
 .u_boot_list_2_cmd_2_write_version
                0x00000000010ae400       0x28 common/built-in.o
                0x00000000010ae400                _u_boot_list_2_cmd_2_write_version
 .u_boot_list_2_cmd_3
                0x00000000010ae428        0x0 common/built-in.o
 .u_boot_list_2_driver_1
                0x00000000010ae428        0x0 drivers/built-in.o
 .u_boot_list_2_driver_2_gpio_aml
                0x00000000010ae428       0x70 drivers/gpio/built-in.o
                0x00000000010ae428                _u_boot_list_2_driver_2_gpio_aml
 .u_boot_list_2_driver_2_root_driver
                0x00000000010ae498       0x70 drivers/built-in.o
                0x00000000010ae498                _u_boot_list_2_driver_2_root_driver
 .u_boot_list_2_driver_3
                0x00000000010ae508        0x0 drivers/built-in.o
 .u_boot_list_2_driver_info_1
                0x00000000010ae508        0x0 drivers/built-in.o
 .u_boot_list_2_driver_info_2_gxbb_gpios
                0x00000000010ae508       0x80 arch/arm/cpu/armv8/built-in.o
                0x00000000010ae508                _u_boot_list_2_driver_info_2_gxbb_gpios
 .u_boot_list_2_driver_info_3
                0x00000000010ae588        0x0 drivers/built-in.o
 .u_boot_list_2_env_clbk_1
                0x00000000010ae588        0x0 common/built-in.o
 .u_boot_list_2_env_clbk_2_baudrate
                0x00000000010ae588       0x10 drivers/serial/built-in.o
                0x00000000010ae588                _u_boot_list_2_env_clbk_2_baudrate
 .u_boot_list_2_env_clbk_2_bootfile
                0x00000000010ae598       0x10 net/built-in.o
                0x00000000010ae598                _u_boot_list_2_env_clbk_2_bootfile
 .u_boot_list_2_env_clbk_2_callbacks
                0x00000000010ae5a8       0x10 common/built-in.o
                0x00000000010ae5a8                _u_boot_list_2_env_clbk_2_callbacks
 .u_boot_list_2_env_clbk_2_console
                0x00000000010ae5b8       0x10 common/built-in.o
                0x00000000010ae5b8                _u_boot_list_2_env_clbk_2_console
 .u_boot_list_2_env_clbk_2_flags
                0x00000000010ae5c8       0x10 common/built-in.o
                0x00000000010ae5c8                _u_boot_list_2_env_clbk_2_flags
 .u_boot_list_2_env_clbk_2_loadaddr
                0x00000000010ae5d8       0x10 common/built-in.o
                0x00000000010ae5d8                _u_boot_list_2_env_clbk_2_loadaddr
 .u_boot_list_2_env_clbk_2_silent
                0x00000000010ae5e8       0x10 common/built-in.o
                0x00000000010ae5e8                _u_boot_list_2_env_clbk_2_silent
 .u_boot_list_2_env_clbk_3
                0x00000000010ae5f8        0x0 common/built-in.o
 .u_boot_list_2_g_dnl_bind_callbacks_1
                0x00000000010ae5f8        0x0 drivers/usb/gadget/built-in.o
 .u_boot_list_2_g_dnl_bind_callbacks_2___usb_function_name_usb_dnl_fastboot
                0x00000000010ae5f8       0x10 drivers/usb/gadget/built-in.o
                0x00000000010ae5f8                _u_boot_list_2_g_dnl_bind_callbacks_2___usb_function_name_usb_dnl_fastboot
 .u_boot_list_2_g_dnl_bind_callbacks_3
                0x00000000010ae608        0x0 drivers/usb/gadget/built-in.o
 .u_boot_list_2_uclass_1
                0x00000000010ae608        0x0 drivers/built-in.o
 .u_boot_list_2_uclass_2_gpio
                0x00000000010ae608       0x50 drivers/gpio/built-in.o
                0x00000000010ae608                _u_boot_list_2_uclass_2_gpio
 .u_boot_list_2_uclass_2_root
                0x00000000010ae658       0x50 drivers/built-in.o
                0x00000000010ae658                _u_boot_list_2_uclass_2_root
 .u_boot_list_2_uclass_3
                0x00000000010ae6a8        0x0 drivers/built-in.o
                0x00000000010ae6a8                . = ALIGN (0x8)

.image_copy_end
                0x00000000010ae6a8        0x0
 *(.__image_copy_end)
 .__image_copy_end
                0x00000000010ae6a8        0x0 arch/arm/lib/built-in.o
                0x00000000010ae6a8                . = ALIGN (0x8)

.rel_dyn_start  0x00000000010ae6a8        0x0
 *(.__rel_dyn_start)
 .__rel_dyn_start
                0x00000000010ae6a8        0x0 arch/arm/lib/built-in.o

.rela.dyn       0x00000000010ae6a8     0xbaa8
 *(.rela*)
 .rela.got      0x0000000000000000        0x0 arch/arm/cpu/armv8/start.o
 .rela.plt      0x0000000000000000        0x0 arch/arm/cpu/armv8/start.o
 .rela.text     0x00000000010ae6a8       0xa8 arch/arm/cpu/armv8/start.o
 .rela.rodata.clk_table
                0x00000000010ae750      0x7c8 arch/arm/cpu/armv8/start.o
 .rela.rodata.gxbb_modes
                0x00000000010aef18      0x288 arch/arm/cpu/armv8/start.o
 .rela.rodata.tvregsTab
                0x00000000010af1a0      0x2e8 arch/arm/cpu/armv8/start.o
 .rela.data.clkrate
                0x00000000010af488       0x18 arch/arm/cpu/armv8/start.o
 .rela.data.mesongxbb_banks
                0x00000000010af4a0       0xc0 arch/arm/cpu/armv8/start.o
 .rela.u_boot_list_2_driver_info_2_gxbb_gpios
                0x00000000010af560      0x180 arch/arm/cpu/armv8/start.o
 .rela.rodata._env_args_reserve_
                0x00000000010af6e0       0x30 arch/arm/cpu/armv8/start.o
 .rela.text.do_version
                0x00000000010af710       0x18 arch/arm/cpu/armv8/start.o
 .rela.text.do_defenv_reserv
                0x00000000010af728       0x18 arch/arm/cpu/armv8/start.o
 .rela.rodata   0x00000000010af740       0x48 arch/arm/cpu/armv8/start.o
 .rela.rodata.boot_os
                0x00000000010af788       0x90 arch/arm/cpu/armv8/start.o
 .rela.rodata.op_table
                0x00000000010af818      0x138 arch/arm/cpu/armv8/start.o
 .rela.rodata.op_adv
                0x00000000010af950      0x180 arch/arm/cpu/armv8/start.o
 .rela.rodata.CSWTCH.23
                0x00000000010afad0       0x78 arch/arm/cpu/armv8/start.o
 .rela.rodata.temp_for_compile
                0x0000000000000000        0x0 arch/arm/cpu/armv8/start.o
 .rela.rodata.uimage_comp
                0x00000000010afb48      0x120 arch/arm/cpu/armv8/start.o
 .rela.rodata.uimage_os
                0x00000000010afc68      0x198 arch/arm/cpu/armv8/start.o
 .rela.rodata.uimage_arch
                0x00000000010afe00      0x498 arch/arm/cpu/armv8/start.o
 .rela.rodata.uimage_type
                0x00000000010b0298      0x408 arch/arm/cpu/armv8/start.o
 .rela.rodata.CSWTCH.87
                0x00000000010b06a0      0x1c8 arch/arm/cpu/armv8/start.o
 .rela.rodata.CSWTCH.24
                0x0000000000000000        0x0 arch/arm/cpu/armv8/start.o
 .rela.rodata.channel_names
                0x00000000010b0868      0x300 arch/arm/cpu/armv8/start.o
 .rela.rodata.all_fmt_paras
                0x00000000010b0b68      0x288 arch/arm/cpu/armv8/start.o
 .rela.rodata.parse_cd_
                0x00000000010b0df0       0x60 arch/arm/cpu/armv8/start.o
 .rela.rodata.parse_cr_
                0x00000000010b0e50       0x30 arch/arm/cpu/armv8/start.o
 .rela.rodata.parse_cs_
                0x00000000010b0e80       0x60 arch/arm/cpu/armv8/start.o
 .rela.data.hash_algo
                0x00000000010b0ee0       0xf0 arch/arm/cpu/armv8/start.o
 .rela.data.reserved_list
                0x00000000010b0fd0      0x108 arch/arm/cpu/armv8/start.o
 .rela.u_boot_list_2_cmd_2_showvar
                0x00000000010b10d8       0x60 arch/arm/cpu/armv8/start.o
 .rela.data.init_sequence_f
                0x00000000010b1138      0x300 arch/arm/cpu/armv8/start.o
 .rela.data.init_sequence_r
                0x00000000010b1438      0x270 arch/arm/cpu/armv8/start.o
 .rela.u_boot_list_2_cmd_2_go
                0x00000000010b16a8       0x60 arch/arm/cpu/armv8/start.o
 .rela.u_boot_list_2_cmd_2_reset
                0x00000000010b1708       0x60 arch/arm/cpu/armv8/start.o
 .rela.u_boot_list_2_cmd_2_booti
                0x00000000010b1768       0x60 arch/arm/cpu/armv8/start.o
 .rela.u_boot_list_2_cmd_2_bootm
                0x00000000010b17c8       0x60 arch/arm/cpu/armv8/start.o
 .rela.data.cmd_bootm_sub
                0x00000000010b1828      0x288 arch/arm/cpu/armv8/start.o
 .rela.u_boot_list_2_cmd_2_question_mark
                0x00000000010b1ab0       0x60 arch/arm/cpu/armv8/start.o
 .rela.u_boot_list_2_cmd_2_help
                0x00000000010b1b10       0x60 arch/arm/cpu/armv8/start.o
 .rela.u_boot_list_2_cmd_2_version
                0x00000000010b1b70       0x60 arch/arm/cpu/armv8/start.o
 .rela.u_boot_list_2_env_clbk_2_callbacks
                0x00000000010b1bd0       0x30 arch/arm/cpu/armv8/start.o
 .rela.u_boot_list_2_env_clbk_2_flags
                0x00000000010b1c00       0x30 arch/arm/cpu/armv8/start.o
 .rela.data.env_name_spec
                0x00000000010b1c30       0x18 arch/arm/cpu/armv8/start.o
 .rela.u_boot_list_2_cmd_2_autoscr
                0x00000000010b1c48       0x60 arch/arm/cpu/armv8/start.o
 .rela.data.cmd_bmp_sub
                0x00000000010b1ca8      0x120 arch/arm/cpu/armv8/start.o
 .rela.u_boot_list_2_cmd_2_bmp
                0x00000000010b1dc8       0x60 arch/arm/cpu/armv8/start.o
 .rela.u_boot_list_2_cmd_2_icache
                0x00000000010b1e28       0x60 arch/arm/cpu/armv8/start.o
 .rela.u_boot_list_2_cmd_2_dcache
                0x00000000010b1e88       0x60 arch/arm/cpu/armv8/start.o
 .rela.data.cmd_saradc_sub
                0x00000000010b1ee8      0x180 arch/arm/cpu/armv8/start.o
 .rela.data.cmd_saradc_12bit_sub
                0x00000000010b2068      0x180 arch/arm/cpu/armv8/start.o
 .rela.u_boot_list_2_cmd_2_saradc_12bit
                0x00000000010b21e8       0x60 arch/arm/cpu/armv8/start.o
 .rela.u_boot_list_2_cmd_2_saradc
                0x00000000010b2248       0x60 arch/arm/cpu/armv8/start.o
 .rela.u_boot_list_2_cmd_2_forceupdate
                0x00000000010b22a8       0x60 arch/arm/cpu/armv8/start.o
 .rela.u_boot_list_2_cmd_2_irblaster
                0x00000000010b2308       0x60 arch/arm/cpu/armv8/start.o
 .rela.data.cmd_ir_sub
                0x00000000010b2368      0x2a0 arch/arm/cpu/armv8/start.o
 .rela.u_boot_list_2_cmd_2_echo
                0x00000000010b2608       0x60 arch/arm/cpu/armv8/start.o
 .rela.u_boot_list_2_cmd_2_exit
                0x00000000010b2668       0x60 arch/arm/cpu/armv8/start.o
 .rela.u_boot_list_2_cmd_2_ext4load
                0x00000000010b26c8       0x60 arch/arm/cpu/armv8/start.o
 .rela.u_boot_list_2_cmd_2_ext4ls
                0x00000000010b2728       0x60 arch/arm/cpu/armv8/start.o
 .rela.u_boot_list_2_cmd_2_ext4size
                0x00000000010b2788       0x60 arch/arm/cpu/armv8/start.o
 .rela.u_boot_list_2_cmd_2_fatinfo
                0x00000000010b27e8       0x60 arch/arm/cpu/armv8/start.o
 .rela.u_boot_list_2_cmd_2_fatsize
                0x00000000010b2848       0x60 arch/arm/cpu/armv8/start.o
 .rela.u_boot_list_2_cmd_2_fatload
                0x00000000010b28a8       0x60 arch/arm/cpu/armv8/start.o
 .rela.u_boot_list_2_cmd_2_fatls
                0x00000000010b2908       0x60 arch/arm/cpu/armv8/start.o
 .rela.u_boot_list_2_cmd_2_fdt
                0x00000000010b2968       0x60 arch/arm/cpu/armv8/start.o
 .rela.data.of_busses
                0x0000000000000000        0x0 arch/arm/cpu/armv8/start.o
 .rela.u_boot_list_2_cmd_2_gpio
                0x00000000010b29c8       0x60 arch/arm/cpu/armv8/start.o
 .rela.u_boot_list_2_cmd_2_i2c
                0x00000000010b2a28       0x60 arch/arm/cpu/armv8/start.o
 .rela.data.cmd_i2c_sub
                0x00000000010b2a88      0x420 arch/arm/cpu/armv8/start.o
 .rela.u_boot_list_2_cmd_2_itest
                0x00000000010b2ea8       0x60 arch/arm/cpu/armv8/start.o
 .rela.u_boot_list_2_cmd_2_bcb
                0x00000000010b2f08       0x60 arch/arm/cpu/armv8/start.o
 .rela.u_boot_list_2_cmd_2_set_active_slot
                0x00000000010b2f68       0x60 arch/arm/cpu/armv8/start.o
 .rela.u_boot_list_2_cmd_2_get_valid_slot
                0x00000000010b2fc8       0x60 arch/arm/cpu/armv8/start.o
 .rela.u_boot_list_2_cmd_2_base
                0x00000000010b3028       0x60 arch/arm/cpu/armv8/start.o
 .rela.u_boot_list_2_cmd_2_cmp
                0x00000000010b3088       0x60 arch/arm/cpu/armv8/start.o
 .rela.u_boot_list_2_cmd_2_nm
                0x00000000010b30e8       0x60 arch/arm/cpu/armv8/start.o
 .rela.u_boot_list_2_cmd_2_loop
                0x00000000010b3148       0x60 arch/arm/cpu/armv8/start.o
 .rela.u_boot_list_2_cmd_2_cp
                0x00000000010b31a8       0x60 arch/arm/cpu/armv8/start.o
 .rela.u_boot_list_2_cmd_2_mm
                0x00000000010b3208       0x60 arch/arm/cpu/armv8/start.o
 .rela.u_boot_list_2_cmd_2_crc32
                0x00000000010b3268       0x60 arch/arm/cpu/armv8/start.o
 .rela.u_boot_list_2_cmd_2_md
                0x00000000010b32c8       0x60 arch/arm/cpu/armv8/start.o
 .rela.u_boot_list_2_cmd_2_mw
                0x00000000010b3328       0x60 arch/arm/cpu/armv8/start.o
 .rela.u_boot_list_2_cmd_2_mwm
                0x00000000010b3388       0x60 arch/arm/cpu/armv8/start.o
 .rela.u_boot_list_2_cmd_2_sleep
                0x00000000010b33e8       0x60 arch/arm/cpu/armv8/start.o
 .rela.u_boot_list_2_cmd_2_mmcinfo
                0x00000000010b3448       0x60 arch/arm/cpu/armv8/start.o
 .rela.data.cmd_mmc
                0x00000000010b34a8      0x480 arch/arm/cpu/armv8/start.o
 .rela.u_boot_list_2_cmd_2_mmc
                0x00000000010b3928       0x60 arch/arm/cpu/armv8/start.o
 .rela.u_boot_list_2_cmd_2_amlmmc
                0x00000000010b3988       0x60 arch/arm/cpu/armv8/start.o
 .rela.u_boot_list_2_cmd_2_emmc
                0x00000000010b39e8       0x60 arch/arm/cpu/armv8/start.o
 .rela.u_boot_list_2_cmd_2_store
                0x00000000010b3a48       0x60 arch/arm/cpu/armv8/start.o
 .rela.data.cmd_store_sub
                0x00000000010b3aa8      0x540 arch/arm/cpu/armv8/start.o
 .rela.u_boot_list_2_cmd_2_unpackimg
                0x00000000010b3fe8       0x60 arch/arm/cpu/armv8/start.o
 .rela.data.cmd_imgread_sub
                0x00000000010b4048      0x180 arch/arm/cpu/armv8/start.o
 .rela.u_boot_list_2_cmd_2_imgread
                0x00000000010b41c8       0x60 arch/arm/cpu/armv8/start.o
 .rela.u_boot_list_2_cmd_2_ping
                0x00000000010b4228       0x60 arch/arm/cpu/armv8/start.o
 .rela.u_boot_list_2_cmd_2_rarpboot
                0x00000000010b4288       0x60 arch/arm/cpu/armv8/start.o
 .rela.u_boot_list_2_cmd_2_dhcp
                0x00000000010b42e8       0x60 arch/arm/cpu/armv8/start.o
 .rela.u_boot_list_2_cmd_2_bootp
                0x00000000010b4348       0x60 arch/arm/cpu/armv8/start.o
 .rela.u_boot_list_2_cmd_2_tftpboot
                0x00000000010b43a8       0x60 arch/arm/cpu/armv8/start.o
 .rela.u_boot_list_2_cmd_2_test
                0x00000000010b4408       0x60 arch/arm/cpu/armv8/start.o
 .rela.u_boot_list_2_cmd_2_true
                0x00000000010b4468       0x48 arch/arm/cpu/armv8/start.o
 .rela.u_boot_list_2_cmd_2_false
                0x00000000010b44b0       0x48 arch/arm/cpu/armv8/start.o
 .rela.u_boot_list_2_cmd_2_usb
                0x00000000010b44f8       0x60 arch/arm/cpu/armv8/start.o
 .rela.u_boot_list_2_cmd_2_usbboot
                0x00000000010b4558       0x60 arch/arm/cpu/armv8/start.o
 .rela.u_boot_list_2_cmd_2_fastboot
                0x00000000010b45b8       0x60 arch/arm/cpu/armv8/start.o
 .rela.u_boot_list_2_cmd_2_vpu
                0x00000000010b4618       0x60 arch/arm/cpu/armv8/start.o
 .rela.data.cmd_vpu_sub
                0x00000000010b4678      0x1e0 arch/arm/cpu/armv8/start.o
 .rela.u_boot_list_2_cmd_2_query
                0x00000000010b4858       0x60 arch/arm/cpu/armv8/start.o
 .rela.u_boot_list_2_cmd_2_efuse
                0x00000000010b48b8       0x60 arch/arm/cpu/armv8/start.o
 .rela.u_boot_list_2_cmd_2_temp_triming
                0x00000000010b4918       0x60 arch/arm/cpu/armv8/start.o
 .rela.u_boot_list_2_cmd_2_set_trim_base
                0x00000000010b4978       0x60 arch/arm/cpu/armv8/start.o
 .rela.u_boot_list_2_cmd_2_write_version
                0x00000000010b49d8       0x60 arch/arm/cpu/armv8/start.o
 .rela.u_boot_list_2_cmd_2_read_temp
                0x00000000010b4a38       0x60 arch/arm/cpu/armv8/start.o
 .rela.u_boot_list_2_cmd_2_write_trim
                0x00000000010b4a98       0x60 arch/arm/cpu/armv8/start.o
 .rela.u_boot_list_2_cmd_2_clkmsr
                0x00000000010b4af8       0x60 arch/arm/cpu/armv8/start.o
 .rela.u_boot_list_2_cmd_2_setenv
                0x00000000010b4b58       0x60 arch/arm/cpu/armv8/start.o
 .rela.u_boot_list_2_cmd_2_env
                0x00000000010b4bb8       0x60 arch/arm/cpu/armv8/start.o
 .rela.u_boot_list_2_cmd_2_saveenv
                0x00000000010b4c18       0x60 arch/arm/cpu/armv8/start.o
 .rela.data.cmd_env_sub
                0x00000000010b4c78      0x300 arch/arm/cpu/armv8/start.o
 .rela.u_boot_list_2_cmd_2_printenv
                0x00000000010b4f78       0x60 arch/arm/cpu/armv8/start.o
 .rela.u_boot_list_2_cmd_2_run
                0x00000000010b4fd8       0x60 arch/arm/cpu/armv8/start.o
 .rela.data.env_htab
                0x00000000010b5038       0x18 arch/arm/cpu/armv8/start.o
 .rela.u_boot_list_2_cmd_2_defenv_reserv
                0x00000000010b5050       0x60 arch/arm/cpu/armv8/start.o
 .rela.u_boot_list_2_env_clbk_2_console
                0x00000000010b50b0       0x30 arch/arm/cpu/armv8/start.o
 .rela.u_boot_list_2_cmd_2_silent
                0x00000000010b50e0       0x60 arch/arm/cpu/armv8/start.o
 .rela.u_boot_list_2_env_clbk_2_silent
                0x00000000010b5140       0x30 arch/arm/cpu/armv8/start.o
 .rela.data.av_
                0x00000000010b5170     0x1800 arch/arm/cpu/armv8/start.o
 .rela.u_boot_list_2_env_clbk_2_loadaddr
                0x00000000010b6970       0x30 arch/arm/cpu/armv8/start.o
 .rela.data.stdio_names
                0x00000000010b69a0       0x48 arch/arm/cpu/armv8/start.o
 .rela.u_boot_list_2_cmd_2_wipeisb
                0x00000000010b69e8       0x60 arch/arm/cpu/armv8/start.o
 .rela.data.cmd_vpp_sub
                0x00000000010b6a48       0x60 arch/arm/cpu/armv8/start.o
 .rela.u_boot_list_2_cmd_2_vpp
                0x00000000010b6aa8       0x60 arch/arm/cpu/armv8/start.o
 .rela.u_boot_list_2_cmd_2_set_usb_boot
                0x00000000010b6b08       0x60 arch/arm/cpu/armv8/start.o
 .rela.u_boot_list_2_cmd_2_get_rebootmode
                0x00000000010b6b68       0x60 arch/arm/cpu/armv8/start.o
 .rela.u_boot_list_2_cmd_2_reboot
                0x00000000010b6bc8       0x60 arch/arm/cpu/armv8/start.o
 .rela.u_boot_list_2_cmd_2_systemoff
                0x00000000010b6c28       0x60 arch/arm/cpu/armv8/start.o
 .rela.u_boot_list_2_cmd_2_open_scp_log
                0x00000000010b6c88       0x60 arch/arm/cpu/armv8/start.o
 .rela.data.fmt_para_3840x2160p60_16x9
                0x00000000010b6ce8       0x30 arch/arm/cpu/armv8/start.o
 .rela.data.fmt_para_1920x1080p25_16x9
                0x00000000010b6d18       0x30 arch/arm/cpu/armv8/start.o
 .rela.data.fmt_para_3840x2160p24_16x9
                0x00000000010b6d48       0x30 arch/arm/cpu/armv8/start.o
 .rela.data.fmt_para_1280x720p60_16x9
                0x00000000010b6d78       0x30 arch/arm/cpu/armv8/start.o
 .rela.data.fmt_para_1920x1080i50_16x9
                0x00000000010b6da8       0x30 arch/arm/cpu/armv8/start.o
 .rela.data.fmt_para_4096x2160p60_y420_256x135
                0x00000000010b6dd8       0x30 arch/arm/cpu/armv8/start.o
 .rela.data.fmt_para_4096x2160p30_256x135
                0x00000000010b6e08       0x30 arch/arm/cpu/armv8/start.o
 .rela.data.fmt_para_720x480i60_16x9
                0x00000000010b6e38       0x30 arch/arm/cpu/armv8/start.o
 .rela.data.fmt_para_1920x1080p30_16x9
                0x00000000010b6e68       0x30 arch/arm/cpu/armv8/start.o
 .rela.data.fmt_para_3840x2160p30_16x9
                0x00000000010b6e98       0x30 arch/arm/cpu/armv8/start.o
 .rela.data.fmt_para_720x576p50_16x9
                0x00000000010b6ec8       0x30 arch/arm/cpu/armv8/start.o
 .rela.data.fmt_para_3840x2160p60_y420_16x9
                0x00000000010b6ef8       0x30 arch/arm/cpu/armv8/start.o
 .rela.data.fmt_para_1920x1080i60_16x9
                0x00000000010b6f28       0x30 arch/arm/cpu/armv8/start.o
 .rela.data.fmt_para_4096x2160p24_256x135
                0x00000000010b6f58       0x30 arch/arm/cpu/armv8/start.o
 .rela.data.fmt_para_3840x2160p50_y420_16x9
                0x00000000010b6f88       0x30 arch/arm/cpu/armv8/start.o
 .rela.data.fmt_para_1920x1080p50_16x9
                0x00000000010b6fb8       0x30 arch/arm/cpu/armv8/start.o
 .rela.data.fmt_para_720x576i50_16x9
                0x00000000010b6fe8       0x30 arch/arm/cpu/armv8/start.o
 .rela.data.fmt_para_3840x2160p25_16x9
                0x00000000010b7018       0x30 arch/arm/cpu/armv8/start.o
 .rela.data.fmt_para_4096x2160p60_256x135
                0x00000000010b7048       0x30 arch/arm/cpu/armv8/start.o
 .rela.data.fmt_para_4096x2160p50_y420_256x135
                0x00000000010b7078       0x30 arch/arm/cpu/armv8/start.o
 .rela.data.fmt_para_720x480p60_16x9
                0x00000000010b70a8       0x30 arch/arm/cpu/armv8/start.o
 .rela.data.fmt_para_3840x2160p50_16x9
                0x00000000010b70d8       0x30 arch/arm/cpu/armv8/start.o
 .rela.data.fmt_para_4096x2160p25_256x135
                0x00000000010b7108       0x30 arch/arm/cpu/armv8/start.o
 .rela.data.fmt_para_1280x720p50_16x9
                0x00000000010b7138       0x30 arch/arm/cpu/armv8/start.o
 .rela.data.fmt_para_1920x1080p60_16x9
                0x00000000010b7168       0x30 arch/arm/cpu/armv8/start.o
 .rela.data.fmt_para_1920x1080p24_16x9
                0x00000000010b7198       0x30 arch/arm/cpu/armv8/start.o
 .rela.data.fmt_para_4096x2160p50_256x135
                0x00000000010b71c8       0x30 arch/arm/cpu/armv8/start.o
 .rela.u_boot_list_2_cmd_2_hdmitx
                0x00000000010b71f8       0x60 arch/arm/cpu/armv8/start.o
 .rela.data.cmd_hdmi_sub
                0x00000000010b7258      0x360 arch/arm/cpu/armv8/start.o
 .rela.u_boot_list_2_cmd_2_jtagoff
                0x00000000010b75b8       0x60 arch/arm/cpu/armv8/start.o
 .rela.u_boot_list_2_cmd_2_jtagon
                0x00000000010b7618       0x60 arch/arm/cpu/armv8/start.o
 .rela.u_boot_list_2_cmd_2_osd
                0x00000000010b7678       0x60 arch/arm/cpu/armv8/start.o
 .rela.data.cmd_osd_sub
                0x00000000010b76d8      0x2a0 arch/arm/cpu/armv8/start.o
 .rela.data.cmd_cvbs_sub
                0x00000000010b7978      0x180 arch/arm/cpu/armv8/start.o
 .rela.u_boot_list_2_cmd_2_cvbs
                0x00000000010b7af8       0x60 arch/arm/cpu/armv8/start.o
 .rela.data.cmd_vout_sub
                0x00000000010b7b58       0xc0 arch/arm/cpu/armv8/start.o
 .rela.u_boot_list_2_cmd_2_vout
                0x00000000010b7c18       0x60 arch/arm/cpu/armv8/start.o
 .rela.u_boot_list_2_cmd_2_rsvmem
                0x00000000010b7c78       0x60 arch/arm/cpu/armv8/start.o
 .rela.data.cmd_rsvmem_sub
                0x00000000010b7cd8       0xc0 arch/arm/cpu/armv8/start.o
 .rela.u_boot_list_2_cmd_2_chipid
                0x00000000010b7d98       0x60 arch/arm/cpu/armv8/start.o
 .rela.rodata.block_drvr
                0x00000000010b7df8       0x78 arch/arm/cpu/armv8/start.o
 .rela.rodata.root_info
                0x00000000010b7e70       0x18 arch/arm/cpu/armv8/start.o
 .rela.rodata.kbd_to_ansi364
                0x0000000000000000        0x0 arch/arm/cpu/armv8/start.o
 .rela.rodata._cfgKeyTypes
                0x00000000010b7e88       0x60 arch/arm/cpu/armv8/start.o
 .rela.rodata._iniSets
                0x00000000010b7ee8       0x60 arch/arm/cpu/armv8/start.o
 .rela.rodata._amlHdcp22RxKeys
                0x00000000010b7f48       0x48 arch/arm/cpu/armv8/start.o
 .rela.rodata.filter_table
                0x00000000010b7f90       0xd8 arch/arm/cpu/armv8/start.o
 .rela.rodata.hw_func_array
                0x00000000010b8068      0x240 arch/arm/cpu/armv8/start.o
 .rela.rodata.vout_sets
                0x00000000010b82a8      0x1c8 arch/arm/cpu/armv8/start.o
 .rela.u_boot_list_2_driver_2_root_driver
                0x00000000010b8470       0x18 arch/arm/cpu/armv8/start.o
 .rela.u_boot_list_2_uclass_2_root
                0x00000000010b8488       0x18 arch/arm/cpu/armv8/start.o
 .rela.u_boot_list_2_cmd_2_efuse_user
                0x00000000010b84a0       0x60 arch/arm/cpu/armv8/start.o
 .rela.data._SecukeyOps
                0x00000000010b8500       0xa8 arch/arm/cpu/armv8/start.o
 .rela.data._efuseKeyOps
                0x00000000010b85a8       0xa8 arch/arm/cpu/armv8/start.o
 .rela.u_boot_list_2_cmd_2_keyunify
                0x00000000010b8650       0x60 arch/arm/cpu/armv8/start.o
 .rela.u_boot_list_2_cmd_2_keyman
                0x00000000010b86b0       0x60 arch/arm/cpu/armv8/start.o
 .rela.data.cmd_keyman_sub
                0x00000000010b8710      0x1e0 arch/arm/cpu/armv8/start.o
 .rela.u_boot_list_2_cmd_2_update
                0x00000000010b88f0       0x60 arch/arm/cpu/armv8/start.o
 .rela.data._usbDownPartImgType
                0x00000000010b8950       0x18 arch/arm/cpu/armv8/start.o
 .rela.u_boot_list_2_cmd_2_sdc_update
                0x00000000010b8968       0x60 arch/arm/cpu/armv8/start.o
 .rela.u_boot_list_2_cmd_2_sdc_burn
                0x00000000010b89c8       0x60 arch/arm/cpu/armv8/start.o
 .rela.u_boot_list_2_cmd_2_usb_burn
                0x00000000010b8a28       0x60 arch/arm/cpu/armv8/start.o
 .rela.u_boot_list_2_cmd_2_usb_update
                0x00000000010b8a88       0x60 arch/arm/cpu/armv8/start.o
 .rela.u_boot_list_2_cmd_2_aml_sysrecovery
                0x00000000010b8ae8       0x60 arch/arm/cpu/armv8/start.o
 .rela.data.protocol_name
                0x00000000010b8b48       0x18 arch/arm/cpu/armv8/start.o
 .rela.data.irblaster_drviver
                0x00000000010b8b60      0x108 arch/arm/cpu/armv8/start.o
 .rela.rodata.gpio_function
                0x00000000010b8c68       0x78 arch/arm/cpu/armv8/start.o
 .rela.rodata.gpio_aml_ops
                0x00000000010b8ce0       0x90 arch/arm/cpu/armv8/start.o
 .rela.u_boot_list_2_uclass_2_gpio
                0x00000000010b8d70       0x48 arch/arm/cpu/armv8/start.o
 .rela.u_boot_list_2_driver_2_gpio_aml
                0x00000000010b8db8       0x48 arch/arm/cpu/armv8/start.o
 .rela.data.g_aml_i2c_m1_ops
                0x00000000010b8e00       0x78 arch/arm/cpu/armv8/start.o
 .rela.rodata.aml_sd_emmc_ops
                0x00000000010b8e78       0x78 arch/arm/cpu/armv8/start.o
 .rela.data.aml_sd_emmc_ports
                0x00000000010b8ef0       0x48 arch/arm/cpu/armv8/start.o
 .rela.data.bch_list_m8
                0x00000000010b8f38       0xd8 arch/arm/cpu/armv8/start.o
 .rela.data.bch_list
                0x0000000000000000        0x0 arch/arm/cpu/armv8/start.o
 .rela.u_boot_list_2_cmd_2_amlnf
                0x00000000010b9010       0x60 arch/arm/cpu/armv8/start.o
 .rela.u_boot_list_2_cmd_2_amlnf_test
                0x00000000010b9070       0x60 arch/arm/cpu/armv8/start.o
 .rela.data.flash_ids_mlc
                0x00000000010b90d0      0x558 arch/arm/cpu/armv8/start.o
 .rela.u_boot_list_2_cmd_2_cbusreg
                0x00000000010b9628       0x60 arch/arm/cpu/armv8/start.o
 .rela.u_boot_list_2_cmd_2_macreg
                0x00000000010b9688       0x60 arch/arm/cpu/armv8/start.o
 .rela.u_boot_list_2_cmd_2_phyreg
                0x00000000010b96e8       0x60 arch/arm/cpu/armv8/start.o
 .rela.data.phy_drivers
                0x00000000010b9748       0x30 arch/arm/cpu/armv8/start.o
 .rela.data.genphy_driver
                0x00000000010b9778       0x60 arch/arm/cpu/armv8/start.o
 .rela.u_boot_list_2_env_clbk_2_baudrate
                0x00000000010b97d8       0x30 arch/arm/cpu/armv8/start.o
 .rela.data.device_UART_PORT_AO
                0x00000000010b9808       0x90 arch/arm/cpu/armv8/start.o
 .rela.data.device_UART_PORT_0
                0x0000000000000000        0x0 arch/arm/cpu/armv8/start.o
 .rela.data.device_UART_PORT_1
                0x0000000000000000        0x0 arch/arm/cpu/armv8/start.o
 .rela.rodata.cmd_dispatch_info
                0x00000000010b9898      0x240 arch/arm/cpu/armv8/start.o
 .rela.data.g_dnl_string_tab
                0x00000000010b9ad8       0x18 arch/arm/cpu/armv8/start.o
 .rela.data.g_dnl_composite_strings
                0x00000000010b9af0       0x18 arch/arm/cpu/armv8/start.o
 .rela.data.g_dnl_driver
                0x00000000010b9b08       0x60 arch/arm/cpu/armv8/start.o
 .rela.data.composite_driver
                0x00000000010b9b68       0x90 arch/arm/cpu/armv8/start.o
 .rela.data.g_dnl_string_defs
                0x00000000010b9bf8       0x48 arch/arm/cpu/armv8/start.o
 .rela.data.fastboot_string_defs
                0x00000000010b9c40       0x18 arch/arm/cpu/armv8/start.o
 .rela.data.fb_runtime_descs
                0x00000000010b9c58       0x48 arch/arm/cpu/armv8/start.o
 .rela.data.fastboot_strings
                0x00000000010b9ca0       0x18 arch/arm/cpu/armv8/start.o
 .rela.data.stringtab_fastboot
                0x00000000010b9cb8       0x18 arch/arm/cpu/armv8/start.o
 .rela.u_boot_list_2_g_dnl_bind_callbacks_2___usb_function_name_usb_dnl_fastboot
                0x00000000010b9cd0       0x30 arch/arm/cpu/armv8/start.o
 .rela.data.dwc_otg_pcd_ep_ops
                0x00000000010b9d00       0xa8 arch/arm/cpu/armv8/start.o
 .rela.rodata.filesystems
                0x0000000000000000        0x0 arch/arm/cpu/armv8/start.o
 .rela.data.fstypes
                0x00000000010b9da8      0x240 arch/arm/cpu/armv8/start.o
 .rela.rodata.z_errmsg
                0x0000000000000000        0x0 arch/arm/cpu/armv8/start.o
 .rela.rodata.fdt_errtable
                0x00000000010b9fe8      0x108 arch/arm/cpu/armv8/start.o
 .rela.data.current
                0x0000000000000000        0x0 arch/arm/cpu/armv8/start.o
 .rela.text.eth_initialize
                0x00000000010ba0f0       0x30 arch/arm/cpu/armv8/start.o
 .rela.u_boot_list_2_env_clbk_2_bootfile
                0x00000000010ba120       0x30 arch/arm/cpu/armv8/start.o

.rel_dyn_end    0x00000000010ba150        0x0
 *(.__rel_dyn_end)
 .__rel_dyn_end
                0x00000000010ba150        0x0 arch/arm/lib/built-in.o
                0x00000000010ba150                _end = .
                0x00000000010ba150                . = ALIGN (0x8)

.bss_start      0x00000000010ba150        0x0
 *(.__bss_start)
 .__bss_start   0x00000000010ba150        0x0 arch/arm/lib/built-in.o
                0x00000000010ba150                __bss_start

.bss            0x00000000010ba180    0x7e838
 *(.bss*)
 .bss.aml_chip_id
                0x00000000010ba180       0x18 arch/arm/cpu/armv8/built-in.o
                0x00000000010ba180                aml_chip_id
 .bss.sd_debug_board_1bit_flag
                0x00000000010ba198        0x4 arch/arm/cpu/armv8/built-in.o
                0x00000000010ba198                sd_debug_board_1bit_flag
 *fill*         0x00000000010ba19c        0x4 
 .bss.g_usb_cfg
                0x00000000010ba1a0       0x18 arch/arm/cpu/armv8/built-in.o
 .bss.usb_index
                0x00000000010ba1b8        0x4 arch/arm/cpu/armv8/built-in.o
                0x00000000010ba1b8                usb_index
 *fill*         0x00000000010ba1bc        0x4 
 .bss.sharemem_input_base
                0x00000000010ba1c0        0x8 arch/arm/cpu/armv8/built-in.o
 .bss.sharemem_output_base
                0x00000000010ba1c8        0x8 arch/arm/cpu/armv8/built-in.o
 .bss.hdmitx_device
                0x00000000010ba1d0      0xa60 arch/arm/cpu/armv8/built-in.o
                0x00000000010ba1d0                hdmitx_device
 .bss.hw_init_flag.6068
                0x00000000010bac30        0x4 arch/arm/cpu/armv8/built-in.o
 .bss.ddc_init_flag.6085
                0x00000000010bac34        0x4 arch/arm/cpu/armv8/built-in.o
 .bss.frac_rate
                0x00000000010bac38        0x4 arch/arm/cpu/armv8/built-in.o
 *fill*         0x00000000010bac3c        0x4 
 .bss.iec958buf.5716
                0x00000000010bac40      0x180 arch/arm/cpu/armv8/built-in.o
 .bss.flag_repeat
                0x00000000010badc0        0x4 common/built-in.o
 *fill*         0x00000000010badc4        0x4 
 .bss.the_command.5809
                0x00000000010badc8      0x208 common/built-in.o
 .bss.ifs       0x00000000010bafd0        0x8 common/built-in.o
 .bss.last_return_code
                0x00000000010bafd8        0x4 common/built-in.o
 *fill*         0x00000000010bafdc        0x4 
 .bss.map       0x00000000010bafe0      0x100 common/built-in.o
 .bss.buf.6009  0x00000000010bb0e0       0x28 common/built-in.o
 .bss.do_repeat
                0x00000000010bb108        0x4 common/built-in.o
 *fill*         0x00000000010bb10c        0x4 
 .bss.top_vars  0x00000000010bb110        0x8 common/built-in.o
 .bss.stored_bootdelay
                0x00000000010bb118        0x4 common/built-in.o
 *fill*         0x00000000010bb11c        0x4 
 .bss.monitor_flash_len
                0x00000000010bb120        0x8 common/built-in.o
                0x00000000010bb120                monitor_flash_len
 .bss.images    0x00000000010bb128      0x280 common/built-in.o
                0x00000000010bb128                images
 .bss.has_boot_slot
                0x00000000010bb3a8        0x4 common/built-in.o
                0x00000000010bb3a8                has_boot_slot
 .bss.parts_total_num
                0x00000000010bb3ac        0x4 common/built-in.o
 .bss.part_table
                0x00000000010bb3b0        0x8 common/built-in.o
                0x00000000010bb3b0                part_table
 .bss.has_system_slot
                0x00000000010bb3b8        0x4 common/built-in.o
                0x00000000010bb3b8                has_system_slot
 *fill*         0x00000000010bb3bc        0x4 
 .bss.callback_list
                0x00000000010bb3c0        0x8 common/built-in.o
 .bss.flags_list
                0x00000000010bb3c8        0x8 common/built-in.o
 .bss.working_fdt
                0x00000000010bb3d0        0x8 common/built-in.o
                0x00000000010bb3d0                working_fdt
 .bss.data.5656
                0x00000000010bb3d8      0x400 common/built-in.o
 .bss.i2c_mm_last_chip
                0x00000000010bb7d8        0x1 common/built-in.o
 *fill*         0x00000000010bb7d9        0x3 
 .bss.i2c_mm_last_addr
                0x00000000010bb7dc        0x4 common/built-in.o
 .bss.i2c_dp_last_chip
                0x00000000010bb7e0        0x1 common/built-in.o
 *fill*         0x00000000010bb7e1        0x3 
 .bss.i2c_mm_last_alen
                0x00000000010bb7e4        0x4 common/built-in.o
 .bss.i2c_dp_last_addr
                0x00000000010bb7e8        0x4 common/built-in.o
 .bss.i2c_dp_last_alen
                0x00000000010bb7ec        0x4 common/built-in.o
 .bss.dp_last_addr
                0x00000000010bb7f0        0x4 common/built-in.o
 *fill*         0x00000000010bb7f4        0x4 
 .bss.base_address
                0x00000000010bb7f8        0x8 common/built-in.o
 .bss.mm_last_size
                0x00000000010bb800        0x4 common/built-in.o
 .bss.mm_last_addr
                0x00000000010bb804        0x4 common/built-in.o
 .bss.dp_last_size
                0x00000000010bb808        0x4 common/built-in.o
 *fill*         0x00000000010bb80c        0x4 
 .bss.current_mii
                0x00000000010bb810        0x8 common/built-in.o
 .bss.mii_devs  0x00000000010bb818       0x10 common/built-in.o
 .bss.dtb_infos
                0x00000000010bb828       0x10 common/built-in.o
 .bss.info_disprotect
                0x00000000010bb838        0x4 common/built-in.o
                0x00000000010bb838                info_disprotect
 .bss.emmc_cur_partition
                0x00000000010bb83c        0x4 common/built-in.o
                0x00000000010bb83c                emmc_cur_partition
 .bss._info_disprotect_back_before_mmcinfo1
                0x00000000010bb840        0x4 common/built-in.o
 .bss.dev_index
                0x00000000010bb844        0x4 common/built-in.o
 *fill*         0x00000000010bb848       0x38 
 .bss.usb_dev   0x00000000010bb880    0x13800 common/built-in.o
 .bss.asynch_allowed
                0x00000000010cf080        0x4 common/built-in.o
 .bss.usb_started
                0x00000000010cf084        0x1 common/built-in.o
                0x00000000010cf084                usb_started
 *fill*         0x00000000010cf085        0x3 
 .bss.usb_hub_index
                0x00000000010cf088        0x4 common/built-in.o
 *fill*         0x00000000010cf08c        0x4 
 .bss.hub_dev   0x00000000010cf090      0x180 common/built-in.o
 .bss.usb_stor  0x00000000010cf210      0x168 common/built-in.o
 .bss.usb_dev_desc
                0x00000000010cf378      0x2d0 common/built-in.o
 .bss.usb_max_devs
                0x00000000010cf648        0x4 common/built-in.o
 .bss.CBWTag    0x00000000010cf64c        0x4 common/built-in.o
 *fill*         0x00000000010cf650       0x30 
 .bss.usb_ccb   0x00000000010cf680      0x100 common/built-in.o
 .bss.vref_en   0x00000000010cf780        0x4 common/built-in.o
                0x00000000010cf780                vref_en
 .bss.trim      0x00000000010cf784        0x4 common/built-in.o
                0x00000000010cf784                trim
 .bss.ctrlc_was_pressed
                0x00000000010cf788        0x4 common/built-in.o
 .bss.ctrlc_disabled
                0x00000000010cf78c        0x4 common/built-in.o
 .bss.buf_p     0x00000000010cf790        0x4 common/built-in.o
 *fill*         0x00000000010cf794        0x4 
 .bss.print_buf
                0x00000000010cf798        0x8 common/built-in.o
 .bss.max_total_mem
                0x00000000010cf7a0        0x8 common/built-in.o
 .bss.mem_malloc_brk
                0x00000000010cf7a8        0x8 common/built-in.o
                0x00000000010cf7a8                mem_malloc_brk
 .bss.max_sbrked_mem
                0x00000000010cf7b0        0x8 common/built-in.o
 .bss.current_mallinfo
                0x00000000010cf7b8       0x28 common/built-in.o
 .bss.mem_malloc_end
                0x00000000010cf7e0        0x8 common/built-in.o
                0x00000000010cf7e0                mem_malloc_end
 .bss.top_pad   0x00000000010cf7e8        0x8 common/built-in.o
 .bss.mem_malloc_start
                0x00000000010cf7f0        0x8 common/built-in.o
                0x00000000010cf7f0                mem_malloc_start
 .bss.andr_tmp_str
                0x00000000010cf7f8      0x208 common/built-in.o
 .bss.devs      0x00000000010cfa00       0x60 common/built-in.o
 .bss.stdio_devices
                0x00000000010cfa60       0x18 common/built-in.o
                0x00000000010cfa60                stdio_devices
 .bss.response_str
                0x00000000010cfa78        0x8 common/built-in.o
 .bss.w_buf     0x00000000010cfa80     0x1000 common/built-in.o
                0x00000000010cfa80                w_buf
 .bss.ib_header
                0x00000000010d0a80     0x1000 common/built-in.o
 .bss.console_buffer
                0x00000000010d1a80      0x208 common/built-in.o
                0x00000000010d1a80                console_buffer
 .bss.edid_raw_buf
                0x00000000010d1c88      0x100 common/built-in.o
 .bss.osd_enabled
                0x00000000010d1d88        0x4 common/built-in.o
                0x00000000010d1d88                osd_enabled
 *fill*         0x00000000010d1d8c        0x4 
 .bss.gdev      0x00000000010d1d90        0x8 common/built-in.o
 .bss.dts_ready
                0x00000000010d1d98        0x4 drivers/built-in.o
 *fill*         0x00000000010d1d9c        0x4 
 .bss.dt_addr   0x00000000010d1da0        0x8 drivers/built-in.o
 .bss.vpu_chip_type
                0x00000000010d1da8        0x4 drivers/built-in.o
                0x00000000010d1da8                vpu_chip_type
 *fill*         0x00000000010d1dac        0x4 
 .bss.efuse_buf
                0x00000000010d1db0      0x200 drivers/built-in.o
                0x00000000010d1db0                efuse_buf
 .bss._efuseKeyInfos
                0x00000000010d1fb0       0x10 drivers/built-in.o
 .bss.unifykey_item
                0x00000000010d1fc0        0x8 drivers/built-in.o
 .bss._mediaErr.7307
                0x00000000010d1fc8        0x4 drivers/built-in.o
 .bss._auto_burn_time_out_base
                0x00000000010d1fcc        0x4 drivers/built-in.o
 .bss.this_pcd  0x00000000010d1fd0      0x180 drivers/built-in.o
                0x00000000010d1fd0                this_pcd
 .bss._resultInfo
                0x00000000010d2150      0x200 drivers/built-in.o
 .bss.time_out_wait_sof
                0x00000000010d2350        0x4 drivers/built-in.o
 .bss.need_check_timeout
                0x00000000010d2354        0x4 drivers/built-in.o
 .bss._lastReportTick.7386
                0x00000000010d2358        0x8 drivers/built-in.o
 .bss._bulk_replyBuf.7338
                0x00000000010d2360      0x200 drivers/built-in.o
 .bss._timeElaspedBeforeLastReport.7387
                0x00000000010d2560        0x4 drivers/built-in.o
 .bss._cbReplyCmdId
                0x00000000010d2564        0x4 drivers/built-in.o
 .bss._cbUnReportedSz
                0x00000000010d2568        0x4 drivers/built-in.o
 .bss.time_out_val
                0x00000000010d256c        0x4 drivers/built-in.o
 .bss.g_dwc_eps
                0x00000000010d2570       0xa0 drivers/built-in.o
                0x00000000010d2570                g_dwc_eps
 .bss._sofintr_not_occur
                0x00000000010d2610        0x4 drivers/built-in.o
 *fill*         0x00000000010d2614        0x4 
 .bss._pcd_buff
                0x00000000010d2618      0x200 drivers/built-in.o
 .bss.cmdBuf.6250
                0x00000000010d2818      0x200 drivers/built-in.o
 .bss._optimusWorkMode
                0x00000000010d2a18        0x4 drivers/built-in.o
 .bss._isBurnComplete.6584
                0x00000000010d2a1c        0x4 drivers/built-in.o
 .bss._dtb_is_loaded
                0x00000000010d2a20        0x8 drivers/built-in.o
 .bss.sha1Result.6505
                0x00000000010d2a28       0x30 drivers/built-in.o
 .bss._disk_intialed_ok
                0x00000000010d2a58        0x4 drivers/built-in.o
 *fill*         0x00000000010d2a5c        0x4 
 .bss.verifyResult.6504
                0x00000000010d2a60       0x18 drivers/built-in.o
 .bss.OptimusImgBurnInfo
                0x00000000010d2a78       0x60 drivers/built-in.o
 .bss._spPacketStates
                0x00000000010d2ad8       0x30 drivers/built-in.o
 .bss._filledBufValidLen.6148
                0x00000000010d2b08        0x4 drivers/built-in.o
 *fill*         0x00000000010d2b0c        0x4 
 .bss._progressInfo
                0x00000000010d2b10       0x20 drivers/built-in.o
 .bss.theItem.6394
                0x00000000010d2b30       0x30 drivers/built-in.o
 .bss.files     0x00000000010d2b60       0x70 drivers/built-in.o
 .bss.get_vfatname_block
                0x00000000010d2bd0    0x10000 drivers/built-in.o
                0x00000000010d2bd0                get_vfatname_block
 .bss._do_fat_read_block
                0x00000000010e2bd0    0x10000 drivers/built-in.o
                0x00000000010e2bd0                _do_fat_read_block
 .bss.fs_info   0x00000000010f2bd0      0x130 drivers/built-in.o
 .bss.part_offset
                0x00000000010f2d00        0x8 drivers/built-in.o
 .bss.get_dentfromdir_block
                0x00000000010f2d08    0x10000 drivers/built-in.o
 .bss.cur_dev   0x0000000001102d08        0x8 drivers/built-in.o
 .bss._fd       0x0000000001102d10        0x8 drivers/built-in.o
 .bss._errInfo  0x0000000001102d18      0x200 drivers/built-in.o
 .bss.usb_start_count
                0x0000000001102f18        0x4 drivers/built-in.o
                0x0000000001102f18                usb_start_count
 *fill*         0x0000000001102f1c        0x4 
 .bss.canvasPool
                0x0000000001102f20     0x1800 drivers/built-in.o
 .bss.canvas_inited
                0x0000000001104720        0x4 drivers/built-in.o
 *fill*         0x0000000001104724        0x4 
 .bss.osd_hw    0x0000000001104728      0x2e0 drivers/built-in.o
 .bss.g_rotation_height
                0x0000000001104a08        0x4 drivers/built-in.o
 .bss.vsync_hit
                0x0000000001104a0c        0x1 drivers/built-in.o
 *fill*         0x0000000001104a0d        0x3 
 .bss.save_disp_data.6438
                0x0000000001104a10       0x10 drivers/built-in.o
 .bss.osd_vf_need_update
                0x0000000001104a20        0x1 drivers/built-in.o
 *fill*         0x0000000001104a21        0x3 
 .bss.osd_log_level
                0x0000000001104a24        0x4 drivers/built-in.o
                0x0000000001104a24                osd_log_level
 .bss.g_rotation_width
                0x0000000001104a28        0x4 drivers/built-in.o
 *fill*         0x0000000001104a2c        0x4 
 .bss.fb_gdev   0x0000000001104a30       0x98 drivers/built-in.o
                0x0000000001104a30                fb_gdev
 .bss.cpu_id    0x0000000001104ac8        0x8 drivers/built-in.o
 .bss.storage_share_block_size
                0x0000000001104ad0        0x8 drivers/built-in.o
 .bss.storage_init_status
                0x0000000001104ad8        0x8 drivers/built-in.o
 .bss.storage_share_out_base
                0x0000000001104ae0        0x8 drivers/built-in.o
 .bss.storage_share_in_base
                0x0000000001104ae8        0x8 drivers/built-in.o
 .bss.storage_share_block_base
                0x0000000001104af0        0x8 drivers/built-in.o
 .bss.saradc_dev
                0x0000000001104af8       0x18 drivers/built-in.o
 .bss.g_bAmlogicI2CInitialized
                0x0000000001104b10        0x1 drivers/i2c/built-in.o
 *fill*         0x0000000001104b11        0x7 
 .bss.g_aml_i2c_data
                0x0000000001104b18       0x90 drivers/i2c/built-in.o
 .bss.mmc_devices
                0x0000000001104ba8       0x10 drivers/mmc/built-in.o
 .bss.p_iptbl_ept
                0x0000000001104bb8        0x8 drivers/mmc/built-in.o
                0x0000000001104bb8                p_iptbl_ept
 .bss.is_partition_checked
                0x0000000001104bc0        0x1 drivers/mmc/built-in.o
                0x0000000001104bc0                is_partition_checked
 *fill*         0x0000000001104bc1        0x7 
 .bss.amlnand_config
                0x0000000001104bc8        0x8 drivers/nand/built-in.o
                0x0000000001104bc8                amlnand_config
 .bss.nlogic_dev_list
                0x0000000001104bd0       0x10 drivers/nand/built-in.o
                0x0000000001104bd0                nlogic_dev_list
 .bss.nf_dev_list
                0x0000000001104be0       0x10 drivers/nand/built-in.o
                0x0000000001104be0                nf_dev_list
 .bss.nphy_dev_list
                0x0000000001104bf0       0x10 drivers/nand/built-in.o
                0x0000000001104bf0                nphy_dev_list
 .bss.aml_nand_dev
                0x0000000001104c00        0x8 drivers/nand/built-in.o
                0x0000000001104c00                aml_nand_dev
 .bss.boot_device_flag
                0x0000000001104c08        0x4 drivers/nand/built-in.o
                0x0000000001104c08                boot_device_flag
 *fill*         0x0000000001104c0c        0x4 
 .bss.local_buf
                0x0000000001104c10      0x200 drivers/nand/built-in.o
                0x0000000001104c10                local_buf
 .bss.aml_chip_env
                0x0000000001104e10        0x8 drivers/nand/built-in.o
                0x0000000001104e10                aml_chip_env
 .bss.aml_chip_dtb
                0x0000000001104e18        0x8 drivers/nand/built-in.o
                0x0000000001104e18                aml_chip_dtb
 .bss.aml_chip_key
                0x0000000001104e20        0x8 drivers/nand/built-in.o
 .bss.nftl_num  0x0000000001104e28        0x4 drivers/nand/built-in.o
 *fill*         0x0000000001104e2c        0x4 
 .bss.aml_nand_chip
                0x0000000001104e30        0x8 drivers/nand/built-in.o
                0x0000000001104e30                aml_nand_chip
 .bss.p_nand_reg
                0x0000000001104e38        0x8 drivers/nand/built-in.o
                0x0000000001104e38                p_nand_reg
 .bss.flash_ids_slc
                0x0000000001104e40       0x30 drivers/nand/built-in.o
                0x0000000001104e40                flash_ids_slc
 .bss.total_blk.6837
                0x0000000001104e70        0x4 drivers/nand/built-in.o
 .bss.scan_flag.6838
                0x0000000001104e74        0x4 drivers/nand/built-in.o
 .bss.dev       0x0000000001104e78        0x8 drivers/net/built-in.o
                0x0000000001104e78                dev
 .bss.priv      0x0000000001104e80        0x8 drivers/net/built-in.o
                0x0000000001104e80                priv
 .bss.serial_devices
                0x0000000001104e88        0x8 drivers/serial/built-in.o
 .bss.serial_current
                0x0000000001104e90        0x8 drivers/serial/built-in.o
 .bss.epnum     0x0000000001104e98        0x4 drivers/usb/gadget/built-in.o
 *fill*         0x0000000001104e9c        0x4 
 .bss.usid_string
                0x0000000001104ea0       0x20 drivers/usb/gadget/built-in.o
                0x0000000001104ea0                usid_string
 .bss.g_dnl_detach_request
                0x0000000001104ec0        0x1 drivers/usb/gadget/built-in.o
 *fill*         0x0000000001104ec1        0x7 
 .bss.composite
                0x0000000001104ec8        0x8 drivers/usb/gadget/built-in.o
 .bss.download_bytes
                0x0000000001104ed0        0x4 drivers/usb/gadget/built-in.o
 *fill*         0x0000000001104ed4        0x4 
 .bss.fastboot_func
                0x0000000001104ed8        0x8 drivers/usb/gadget/built-in.o
 .bss.download_size
                0x0000000001104ee0        0x4 drivers/usb/gadget/built-in.o
 *fill*         0x0000000001104ee4        0x4 
 .bss.gadget_wrapper
                0x0000000001104ee8      0x810 drivers/usb/gadget/built-in.o
                0x0000000001104ee8                gadget_wrapper
 *fill*         0x00000000011056f8        0x8 
 .bss.xhcic     0x0000000001105700      0x8c0 drivers/usb/host/built-in.o
 .bss.amlogic   0x0000000001105fc0       0x28 drivers/usb/host/built-in.o
 .bss.usb_aml_reg
                0x0000000001105fe8        0x8 drivers/usb/host/built-in.o
                0x0000000001105fe8                usb_aml_reg
 .bss.fs_partition
                0x0000000001105ff0       0x60 fs/built-in.o
 .bss.fs_type   0x0000000001106050        0x4 fs/built-in.o
 *fill*         0x0000000001106054        0x4 
 .bss.fs_dev_desc
                0x0000000001106058        0x8 fs/built-in.o
 .bss.ext_fs    0x0000000001106060       0x68 fs/built-in.o
                0x0000000001106060                ext_fs
 .bss.ext4fs_indir3_block
                0x00000000011060c8        0x8 fs/built-in.o
                0x00000000011060c8                ext4fs_indir3_block
 .bss.ext4fs_root
                0x00000000011060d0        0x8 fs/built-in.o
                0x00000000011060d0                ext4fs_root
 .bss.ext4fs_indir3_size
                0x00000000011060d8        0x4 fs/built-in.o
                0x00000000011060d8                ext4fs_indir3_size
 *fill*         0x00000000011060dc        0x4 
 .bss.ext4fs_indir1_block
                0x00000000011060e0        0x8 fs/built-in.o
                0x00000000011060e0                ext4fs_indir1_block
 .bss.ext4fs_indir2_size
                0x00000000011060e8        0x4 fs/built-in.o
                0x00000000011060e8                ext4fs_indir2_size
 *fill*         0x00000000011060ec        0x4 
 .bss.ext4fs_indir2_block
                0x00000000011060f0        0x8 fs/built-in.o
                0x00000000011060f0                ext4fs_indir2_block
 .bss.ext4fs_indir1_size
                0x00000000011060f8        0x4 fs/built-in.o
                0x00000000011060f8                ext4fs_indir1_size
 .bss.symlinknest
                0x00000000011060fc        0x4 fs/built-in.o
 .bss.ext4fs_file
                0x0000000001106100        0x8 fs/built-in.o
                0x0000000001106100                ext4fs_file
 .bss.part_info
                0x0000000001106108        0x8 fs/built-in.o
 .bss.ext4fs_block_dev_desc
                0x0000000001106110        0x8 fs/built-in.o
 .bss.part_offset
                0x0000000001106118        0x8 fs/built-in.o
                0x0000000001106118                part_offset
 *fill*         0x0000000001106120       0x20 
 .bss.do_fat_read_at_block
                0x0000000001106140    0x10000 fs/built-in.o
                0x0000000001106140                do_fat_read_at_block
 .bss.get_dentfromdir_block
                0x0000000001116140    0x10000 fs/built-in.o
                0x0000000001116140                get_dentfromdir_block
 .bss.cur_part_info
                0x0000000001126140       0x60 fs/built-in.o
 *fill*         0x00000000011261a0       0x20 
 .bss.get_contents_vfatname_block
                0x00000000011261c0    0x10000 fs/built-in.o
                0x00000000011261c0                get_contents_vfatname_block
 .bss.cur_dev   0x00000000011361c0        0x8 fs/built-in.o
 .bss.errno     0x00000000011361c8        0x4 lib/built-in.o
                0x00000000011361c8                errno
 *fill*         0x00000000011361cc        0x4 
 .bss.local.5798
                0x00000000011361d0       0x18 lib/built-in.o
 .bss.NetArpWaitPacketIP
                0x00000000011361e8        0x4 net/built-in.o
                0x00000000011361e8                NetArpWaitPacketIP
 *fill*         0x00000000011361ec        0x4 
 .bss.NetArpWaitTimerStart
                0x00000000011361f0        0x8 net/built-in.o
                0x00000000011361f0                NetArpWaitTimerStart
 .bss.NetArpWaitReplyIP
                0x00000000011361f8        0x4 net/built-in.o
 .bss.NetArpWaitTxPacketSize
                0x00000000011361fc        0x4 net/built-in.o
                0x00000000011361fc                NetArpWaitTxPacketSize
 .bss.NetArpWaitTry
                0x0000000001136200        0x4 net/built-in.o
                0x0000000001136200                NetArpWaitTry
 *fill*         0x0000000001136204        0x4 
 .bss.NetArpTxPacket
                0x0000000001136208        0x8 net/built-in.o
 .bss.NetArpPacketBuf
                0x0000000001136210      0x640 net/built-in.o
 .bss.NetArpWaitPacketMAC
                0x0000000001136850        0x8 net/built-in.o
                0x0000000001136850                NetArpWaitPacketMAC
 .bss.dhcp_state
                0x0000000001136858        0x4 net/built-in.o
 .bss.BootpTry  0x000000000113685c        0x4 net/built-in.o
                0x000000000113685c                BootpTry
 .bss.NetDHCPServerIP
                0x0000000001136860        0x4 net/built-in.o
 *fill*         0x0000000001136864        0x4 
 .bss.bootp_timeout
                0x0000000001136868        0x8 net/built-in.o
                0x0000000001136868                bootp_timeout
 .bss.bootp_ids
                0x0000000001136870       0x20 net/built-in.o
                0x0000000001136870                bootp_ids
 .bss.bootp_num_ids
                0x0000000001136890        0x4 net/built-in.o
                0x0000000001136890                bootp_num_ids
 *fill*         0x0000000001136894        0x4 
 .bss.bootp_start
                0x0000000001136898        0x8 net/built-in.o
                0x0000000001136898                bootp_start
 .bss.dhcp_leasetime
                0x00000000011368a0        0x4 net/built-in.o
 .bss.index.6199
                0x00000000011368a4        0x4 net/built-in.o
 .bss.first_failed.6246
                0x00000000011368a8        0x8 net/built-in.o
 .bss.eth_current
                0x00000000011368b0        0x8 net/built-in.o
                0x00000000011368b0                eth_current
 .bss.env_changed_id.6252
                0x00000000011368b8        0x4 net/built-in.o
 *fill*         0x00000000011368bc        0x4 
 .bss.eth_devices
                0x00000000011368c0        0x8 net/built-in.o
 .bss.act.6251  0x00000000011368c8        0x8 net/built-in.o
 .bss.NetOurEther
                0x00000000011368d0        0x8 net/built-in.o
                0x00000000011368d0                NetOurEther
 .bss.NetServerIP
                0x00000000011368d8        0x4 net/built-in.o
                0x00000000011368d8                NetServerIP
 .bss.NetRestarted
                0x00000000011368dc        0x4 net/built-in.o
 .bss.net_state
                0x00000000011368e0        0x4 net/built-in.o
                0x00000000011368e0                net_state
 *fill*         0x00000000011368e4        0x4 
 .bss.NetRxPackets
                0x00000000011368e8       0x20 net/built-in.o
                0x00000000011368e8                NetRxPackets
 .bss.NetBootFileSize
                0x0000000001136908        0x2 net/built-in.o
                0x0000000001136908                NetBootFileSize
 *fill*         0x000000000113690a        0x6 
 .bss.NetEtherNullAddr
                0x0000000001136910        0x8 net/built-in.o
                0x0000000001136910                NetEtherNullAddr
 .bss.NetRxPacket
                0x0000000001136918        0x8 net/built-in.o
                0x0000000001136918                NetRxPacket
 .bss.udp_packet_handler
                0x0000000001136920        0x8 net/built-in.o
 .bss.NetDevExists
                0x0000000001136928        0x4 net/built-in.o
 *fill*         0x000000000113692c        0x4 
 .bss.timeStart
                0x0000000001136930        0x8 net/built-in.o
 .bss.timeHandler
                0x0000000001136938        0x8 net/built-in.o
 .bss.NetTryCount
                0x0000000001136940        0x4 net/built-in.o
 .bss.NetOurDNSIP
                0x0000000001136944        0x4 net/built-in.o
                0x0000000001136944                NetOurDNSIP
 .bss.NetOurSubnetMask
                0x0000000001136948        0x4 net/built-in.o
                0x0000000001136948                NetOurSubnetMask
 *fill*         0x000000000113694c        0x4 
 .bss.NetTxPacket
                0x0000000001136950        0x8 net/built-in.o
                0x0000000001136950                NetTxPacket
 .bss.NetBootFileXferSize
                0x0000000001136958        0x8 net/built-in.o
                0x0000000001136958                NetBootFileXferSize
 .bss.NetOurIP  0x0000000001136960        0x4 net/built-in.o
                0x0000000001136960                NetOurIP
 *fill*         0x0000000001136964        0x4 
 .bss.NetOurHostName
                0x0000000001136968       0x20 net/built-in.o
                0x0000000001136968                NetOurHostName
 .bss.NetOurNISDomain
                0x0000000001136988       0x20 net/built-in.o
                0x0000000001136988                NetOurNISDomain
 .bss.NetIPID   0x00000000011369a8        0x4 net/built-in.o
                0x00000000011369a8                NetIPID
 .bss.NetOurGatewayIP
                0x00000000011369ac        0x4 net/built-in.o
                0x00000000011369ac                NetOurGatewayIP
 .bss.arp_packet_handler
                0x00000000011369b0        0x8 net/built-in.o
 .bss.timeDelta
                0x00000000011369b8        0x8 net/built-in.o
 .bss.NetRestartWrap
                0x00000000011369c0        0x4 net/built-in.o
                0x00000000011369c0                NetRestartWrap
 .bss.NetRxPacketLen
                0x00000000011369c4        0x4 net/built-in.o
                0x00000000011369c4                NetRxPacketLen
 .bss.BootFile  0x00000000011369c8       0x80 net/built-in.o
                0x00000000011369c8                BootFile
 .bss.env_changed_id.5792
                0x0000000001136a48        0x4 net/built-in.o
 *fill*         0x0000000001136a4c        0x4 
 .bss.NetServerEther
                0x0000000001136a50        0x8 net/built-in.o
                0x0000000001136a50                NetServerEther
 .bss.PktBuf    0x0000000001136a58     0x1e40 net/built-in.o
 .bss.NetOurRootPath
                0x0000000001138898       0x40 net/built-in.o
                0x0000000001138898                NetOurRootPath
 .bss.NetPingIP
                0x00000000011388d8        0x4 net/built-in.o
                0x00000000011388d8                NetPingIP
 .bss.PingSeqNo
                0x00000000011388dc        0x2 net/built-in.o
 *fill*         0x00000000011388de        0x2 
 .bss.RarpTry   0x00000000011388e0        0x4 net/built-in.o
                0x00000000011388e0                RarpTry
 *fill*         0x00000000011388e4        0x4 
 .bss.time_start
                0x00000000011388e8        0x8 net/built-in.o
 .bss.TftpTimeoutCount
                0x00000000011388f0        0x4 net/built-in.o
 *fill*         0x00000000011388f4        0x4 
 .bss.TftpBlockWrap
                0x00000000011388f8        0x8 net/built-in.o
 .bss.TftpBlock
                0x0000000001138900        0x8 net/built-in.o
 .bss.TftpOurPort
                0x0000000001138908        0x4 net/built-in.o
 .bss.TftpRemoteIP
                0x000000000113890c        0x4 net/built-in.o
 .bss.TftpState
                0x0000000001138910        0x4 net/built-in.o
 .bss.TftpRemotePort
                0x0000000001138914        0x4 net/built-in.o
 .bss.default_filename
                0x0000000001138918       0x10 net/built-in.o
 .bss.tftp_filename
                0x0000000001138928       0x80 net/built-in.o
 .bss.TftpBlockWrapOffset
                0x00000000011389a8        0x8 net/built-in.o
 .bss.TftpLastBlock
                0x00000000011389b0        0x8 net/built-in.o
                0x00000000011389b8                . = ALIGN (0x8)

.dynbss         0x00000000011389b8        0x0
 .dynbss        0x0000000000000000        0x0 arch/arm/cpu/armv8/start.o

.bss_end        0x00000000011389b8        0x0
 *(.__bss_end)
 .__bss_end     0x00000000011389b8        0x0 arch/arm/lib/built-in.o
                0x00000000011389b8                __bss_end

/DISCARD/
 *(.dynsym)
 *(.dynstr*)
 *(.dynamic*)
 *(.plt*)
 *(.interp*)
 *(.gnu*)
LOAD arch/arm/cpu/armv8/start.o
START GROUP
LOAD arch/arm/cpu/built-in.o
LOAD arch/arm/cpu/armv8/built-in.o
LOAD arch/arm/lib/built-in.o
LOAD board/amlogic/gxl_p212_v1/built-in.o
LOAD common/built-in.o
LOAD disk/built-in.o
LOAD drivers/built-in.o
LOAD drivers/dma/built-in.o
LOAD drivers/gpio/built-in.o
LOAD drivers/i2c/built-in.o
LOAD drivers/mmc/built-in.o
LOAD drivers/mtd/built-in.o
LOAD drivers/mtd/onenand/built-in.o
LOAD drivers/mtd/spi/built-in.o
LOAD drivers/nand/built-in.o
LOAD drivers/net/built-in.o
LOAD drivers/net/phy/built-in.o
LOAD drivers/pci/built-in.o
LOAD drivers/power/built-in.o
LOAD drivers/power/battery/built-in.o
LOAD drivers/power/fuel_gauge/built-in.o
LOAD drivers/power/mfd/built-in.o
LOAD drivers/power/pmic/built-in.o
LOAD drivers/serial/built-in.o
LOAD drivers/spi/built-in.o
LOAD drivers/usb/eth/built-in.o
LOAD drivers/usb/gadget/built-in.o
LOAD drivers/usb/host/built-in.o
LOAD drivers/usb/musb-new/built-in.o
LOAD drivers/usb/musb/built-in.o
LOAD drivers/usb/phy/built-in.o
LOAD drivers/usb/ulpi/built-in.o
LOAD fs/built-in.o
LOAD lib/built-in.o
LOAD net/built-in.o
LOAD test/built-in.o
LOAD test/dm/built-in.o
END GROUP
LOAD /opt/gcc-linaro-aarch64-none-elf-4.8-2013.11_linux/bin/../lib/gcc/aarch64-none-elf/4.8.3/libgcc.a
OUTPUT(u-boot elf64-littleaarch64)

.debug_line     0x0000000000000000    0x381b6
 .debug_line    0x0000000000000000       0x83 arch/arm/cpu/armv8/start.o
 .debug_line    0x0000000000000083     0x2731 arch/arm/cpu/armv8/built-in.o
 .debug_line    0x00000000000027b4      0x8cf arch/arm/lib/built-in.o
 .debug_line    0x0000000000003083      0x528 board/amlogic/gxl_p212_v1/built-in.o
 .debug_line    0x00000000000035ab     0xfca4 common/built-in.o
 .debug_line    0x000000000001324f      0x81d disk/built-in.o
 .debug_line    0x0000000000013a6c     0xbc5d drivers/built-in.o
 .debug_line    0x000000000001f6c9      0x6f3 drivers/gpio/built-in.o
 .debug_line    0x000000000001fdbc      0x71d drivers/i2c/built-in.o
 .debug_line    0x00000000000204d9     0x15e9 drivers/mmc/built-in.o
 .debug_line    0x0000000000021ac2     0xa034 drivers/nand/built-in.o
 .debug_line    0x000000000002baf6      0x445 drivers/net/built-in.o
 .debug_line    0x000000000002bf3b      0x58d drivers/net/phy/built-in.o
 .debug_line    0x000000000002c4c8      0x74f drivers/serial/built-in.o
 .debug_line    0x000000000002cc17     0x1df3 drivers/usb/gadget/built-in.o
 .debug_line    0x000000000002ea0a     0x12e6 drivers/usb/host/built-in.o
 .debug_line    0x000000000002fcf0     0x180a fs/built-in.o
 .debug_line    0x00000000000314fa     0x5482 lib/built-in.o
 .debug_line    0x000000000003697c     0x183a net/built-in.o

.debug_info     0x0000000000000000   0x16855b
 .debug_info    0x0000000000000000       0x76 arch/arm/cpu/armv8/start.o
 .debug_info    0x0000000000000076     0xf297 arch/arm/cpu/armv8/built-in.o
 .debug_info    0x000000000000f30d     0x30ea arch/arm/lib/built-in.o
 .debug_info    0x00000000000123f7     0x2b04 board/amlogic/gxl_p212_v1/built-in.o
 .debug_info    0x0000000000014efb    0x6b573 common/built-in.o
 .debug_info    0x000000000008046e     0x2fe3 disk/built-in.o
 .debug_info    0x0000000000083451    0x4d9f0 drivers/built-in.o
 .debug_info    0x00000000000d0e41     0x27c6 drivers/gpio/built-in.o
 .debug_info    0x00000000000d3607     0x29c7 drivers/i2c/built-in.o
 .debug_info    0x00000000000d5fce     0x9a0b drivers/mmc/built-in.o
 .debug_info    0x00000000000df9d9    0x41655 drivers/nand/built-in.o
 .debug_info    0x000000000012102e     0x2321 drivers/net/built-in.o
 .debug_info    0x000000000012334f     0x2222 drivers/net/phy/built-in.o
 .debug_info    0x0000000000125571     0x251a drivers/serial/built-in.o
 .debug_info    0x0000000000127a8b     0xdc95 drivers/usb/gadget/built-in.o
 .debug_info    0x0000000000135720     0xab58 drivers/usb/host/built-in.o
 .debug_info    0x0000000000140278     0x9372 fs/built-in.o
 .debug_info    0x00000000001495ea    0x14ddc lib/built-in.o
 .debug_info    0x000000000015e3c6     0xa195 net/built-in.o

.debug_abbrev   0x0000000000000000    0x325c1
 .debug_abbrev  0x0000000000000000       0x14 arch/arm/cpu/armv8/start.o
 .debug_abbrev  0x0000000000000014     0x2ae8 arch/arm/cpu/armv8/built-in.o
 .debug_abbrev  0x0000000000002afc      0xb8f arch/arm/lib/built-in.o
 .debug_abbrev  0x000000000000368b      0x727 board/amlogic/gxl_p212_v1/built-in.o
 .debug_abbrev  0x0000000000003db2    0x115bf common/built-in.o
 .debug_abbrev  0x0000000000015371      0x9a7 disk/built-in.o
 .debug_abbrev  0x0000000000015d18     0x905f drivers/built-in.o
 .debug_abbrev  0x000000000001ed77      0x613 drivers/gpio/built-in.o
 .debug_abbrev  0x000000000001f38a      0x4a5 drivers/i2c/built-in.o
 .debug_abbrev  0x000000000001f82f     0x12ac drivers/mmc/built-in.o
 .debug_abbrev  0x0000000000020adb     0x6249 drivers/nand/built-in.o
 .debug_abbrev  0x0000000000026d24      0x44c drivers/net/built-in.o
 .debug_abbrev  0x0000000000027170      0x493 drivers/net/phy/built-in.o
 .debug_abbrev  0x0000000000027603      0x7ac drivers/serial/built-in.o
 .debug_abbrev  0x0000000000027daf     0x1d9e drivers/usb/gadget/built-in.o
 .debug_abbrev  0x0000000000029b4d     0x1266 drivers/usb/host/built-in.o
 .debug_abbrev  0x000000000002adb3     0x13ef fs/built-in.o
 .debug_abbrev  0x000000000002c1a2     0x48f1 lib/built-in.o
 .debug_abbrev  0x0000000000030a93     0x1b2e net/built-in.o

.debug_aranges  0x0000000000000000     0xb700
 .debug_aranges
                0x0000000000000000       0x30 arch/arm/cpu/armv8/start.o
 .debug_aranges
                0x0000000000000030      0x8f0 arch/arm/cpu/armv8/built-in.o
 .debug_aranges
                0x0000000000000920      0x2e0 arch/arm/lib/built-in.o
 .debug_aranges
                0x0000000000000c00      0x150 board/amlogic/gxl_p212_v1/built-in.o
 .debug_aranges
                0x0000000000000d50     0x38c0 common/built-in.o
 .debug_aranges
                0x0000000000004610      0x1a0 disk/built-in.o
 .debug_aranges
                0x00000000000047b0     0x2410 drivers/built-in.o
 .debug_aranges
                0x0000000000006bc0      0x1e0 drivers/gpio/built-in.o
 .debug_aranges
                0x0000000000006da0      0x170 drivers/i2c/built-in.o
 .debug_aranges
                0x0000000000006f10      0x4f0 drivers/mmc/built-in.o
 .debug_aranges
                0x0000000000007400     0x1710 drivers/nand/built-in.o
 .debug_aranges
                0x0000000000008b10       0xd0 drivers/net/built-in.o
 .debug_aranges
                0x0000000000008be0      0x170 drivers/net/phy/built-in.o
 .debug_aranges
                0x0000000000008d50      0x320 drivers/serial/built-in.o
 .debug_aranges
                0x0000000000009070      0x6a0 drivers/usb/gadget/built-in.o
 .debug_aranges
                0x0000000000009710      0x300 drivers/usb/host/built-in.o
 .debug_aranges
                0x0000000000009a10      0x540 fs/built-in.o
 .debug_aranges
                0x0000000000009f50     0x1280 lib/built-in.o
 .debug_aranges
                0x000000000000b1d0      0x530 net/built-in.o

.comment        0x0000000000000000       0x5f
 .comment       0x0000000000000000       0x5f arch/arm/cpu/armv8/built-in.o
                                        0x780 (size before relaxing)
 .comment       0x0000000000000000      0x240 arch/arm/lib/built-in.o
 .comment       0x0000000000000000       0xc0 board/amlogic/gxl_p212_v1/built-in.o
 .comment       0x0000000000000000     0x2400 common/built-in.o
 .comment       0x0000000000000000      0x120 disk/built-in.o
 .comment       0x0000000000000000     0x1140 drivers/built-in.o
 .comment       0x0000000000000000       0xc0 drivers/gpio/built-in.o
 .comment       0x0000000000000000       0x60 drivers/i2c/built-in.o
 .comment       0x0000000000000000      0x180 drivers/mmc/built-in.o
 .comment       0x0000000000000000      0xa80 drivers/nand/built-in.o
 .comment       0x0000000000000000       0x60 drivers/net/built-in.o
 .comment       0x0000000000000000       0x60 drivers/net/phy/built-in.o
 .comment       0x0000000000000000       0xc0 drivers/serial/built-in.o
 .comment       0x0000000000000000      0x2a0 drivers/usb/gadget/built-in.o
 .comment       0x0000000000000000      0x180 drivers/usb/host/built-in.o
 .comment       0x0000000000000000      0x240 fs/built-in.o
 .comment       0x0000000000000000      0xde0 lib/built-in.o
 .comment       0x0000000000000000      0x2a0 net/built-in.o

.debug_frame    0x0000000000000000    0x1ccb0
 .debug_frame   0x0000000000000000      0xf48 arch/arm/cpu/armv8/built-in.o
 .debug_frame   0x0000000000000f48      0x3e0 arch/arm/lib/built-in.o
 .debug_frame   0x0000000000001328      0x2a8 board/amlogic/gxl_p212_v1/built-in.o
 .debug_frame   0x00000000000015d0     0x8fc0 common/built-in.o
 .debug_frame   0x000000000000a590      0x460 disk/built-in.o
 .debug_frame   0x000000000000a9f0     0x5cc0 drivers/built-in.o
 .debug_frame   0x00000000000106b0      0x4c8 drivers/gpio/built-in.o
 .debug_frame   0x0000000000010b78      0x488 drivers/i2c/built-in.o
 .debug_frame   0x0000000000011000      0xda8 drivers/mmc/built-in.o
 .debug_frame   0x0000000000011da8     0x43d0 drivers/nand/built-in.o
 .debug_frame   0x0000000000016178      0x2a0 drivers/net/built-in.o
 .debug_frame   0x0000000000016418      0x410 drivers/net/phy/built-in.o
 .debug_frame   0x0000000000016828      0x688 drivers/serial/built-in.o
 .debug_frame   0x0000000000016eb0      0xfb0 drivers/usb/gadget/built-in.o
 .debug_frame   0x0000000000017e60      0x8a0 drivers/usb/host/built-in.o
 .debug_frame   0x0000000000018700      0xdd0 fs/built-in.o
 .debug_frame   0x00000000000194d0     0x2a20 lib/built-in.o
 .debug_frame   0x000000000001bef0      0xdc0 net/built-in.o

.debug_str      0x0000000000000000    0x20a8a
 .debug_str     0x0000000000000000     0x2bc3 arch/arm/cpu/armv8/built-in.o
                                       0x8848 (size before relaxing)
 .debug_str     0x0000000000002bc3     0x1041 arch/arm/lib/built-in.o
                                       0x26d7 (size before relaxing)
 .debug_str     0x0000000000003c04      0xa92 board/amlogic/gxl_p212_v1/built-in.o
                                       0x1676 (size before relaxing)
 .debug_str     0x0000000000004696     0x8971 common/built-in.o
                                      0x34d1a (size before relaxing)
 .debug_str     0x000000000000d007      0x2d9 disk/built-in.o
                                       0x1329 (size before relaxing)
 .debug_str     0x000000000000d2e0     0x8a94 drivers/built-in.o
                                      0x1952e (size before relaxing)
 .debug_str     0x0000000000015d74      0x244 drivers/gpio/built-in.o
                                       0x132f (size before relaxing)
 .debug_str     0x0000000000015fb8      0x4bf drivers/i2c/built-in.o
                                        0xac0 (size before relaxing)
 .debug_str     0x0000000000016477      0xd83 drivers/mmc/built-in.o
                                       0x30eb (size before relaxing)
 .debug_str     0x00000000000171fa     0x3c92 drivers/nand/built-in.o
                                      0x1b259 (size before relaxing)
 .debug_str     0x000000000001ae8c      0x382 drivers/net/built-in.o
                                        0xb42 (size before relaxing)
 .debug_str     0x000000000001b20e      0x1d2 drivers/net/phy/built-in.o
                                        0x913 (size before relaxing)
 .debug_str     0x000000000001b3e0      0x45b drivers/serial/built-in.o
                                        0xfbe (size before relaxing)
 .debug_str     0x000000000001b83b     0x10d0 drivers/usb/gadget/built-in.o
                                       0x5b32 (size before relaxing)
 .debug_str     0x000000000001c90b     0x1292 drivers/usb/host/built-in.o
                                       0x4809 (size before relaxing)
 .debug_str     0x000000000001db9d      0xbf8 fs/built-in.o
                                       0x3982 (size before relaxing)
 .debug_str     0x000000000001e795     0x1420 lib/built-in.o
                                       0x98cf (size before relaxing)
 .debug_str     0x000000000001fbb5      0xed5 net/built-in.o
                                       0x5586 (size before relaxing)

.debug_loc      0x0000000000000000   0x125e7e
 .debug_loc     0x0000000000000000     0x8300 arch/arm/cpu/armv8/built-in.o
 .debug_loc     0x0000000000008300      0xabc arch/arm/lib/built-in.o
 .debug_loc     0x0000000000008dbc      0x93d board/amlogic/gxl_p212_v1/built-in.o
 .debug_loc     0x00000000000096f9    0x4f1ce common/built-in.o
 .debug_loc     0x00000000000588c7     0x21a4 disk/built-in.o
 .debug_loc     0x000000000005aa6b    0x3fb72 drivers/built-in.o
 .debug_loc     0x000000000009a5dd     0x1d9c drivers/gpio/built-in.o
 .debug_loc     0x000000000009c379     0x21b5 drivers/i2c/built-in.o
 .debug_loc     0x000000000009e52e     0x7b19 drivers/mmc/built-in.o
 .debug_loc     0x00000000000a6047    0x35d61 drivers/nand/built-in.o
 .debug_loc     0x00000000000dbda8     0x2653 drivers/net/built-in.o
 .debug_loc     0x00000000000de3fb     0x22e6 drivers/net/phy/built-in.o
 .debug_loc     0x00000000000e06e1     0x13a1 drivers/serial/built-in.o
 .debug_loc     0x00000000000e1a82     0x837a drivers/usb/gadget/built-in.o
 .debug_loc     0x00000000000e9dfc     0x8452 drivers/usb/host/built-in.o
 .debug_loc     0x00000000000f224e     0x8f6b fs/built-in.o
 .debug_loc     0x00000000000fb1b9    0x2490d lib/built-in.o
 .debug_loc     0x000000000011fac6     0x63b8 net/built-in.o

.debug_ranges   0x0000000000000000    0x171e0
 .debug_ranges  0x0000000000000000      0xb40 arch/arm/cpu/armv8/built-in.o
 .debug_ranges  0x0000000000000b40      0x1e0 arch/arm/lib/built-in.o
 .debug_ranges  0x0000000000000d20      0x190 board/amlogic/gxl_p212_v1/built-in.o
 .debug_ranges  0x0000000000000eb0     0x59f0 common/built-in.o
 .debug_ranges  0x00000000000068a0      0x380 disk/built-in.o
 .debug_ranges  0x0000000000006c20     0x7420 drivers/built-in.o
 .debug_ranges  0x000000000000e040      0x1f0 drivers/gpio/built-in.o
 .debug_ranges  0x000000000000e230      0x300 drivers/i2c/built-in.o
 .debug_ranges  0x000000000000e530      0x970 drivers/mmc/built-in.o
 .debug_ranges  0x000000000000eea0     0x2210 drivers/nand/built-in.o
 .debug_ranges  0x00000000000110b0      0x300 drivers/net/built-in.o
 .debug_ranges  0x00000000000113b0      0x3e0 drivers/net/phy/built-in.o
 .debug_ranges  0x0000000000011790      0x3e0 drivers/serial/built-in.o
 .debug_ranges  0x0000000000011b70     0x1040 drivers/usb/gadget/built-in.o
 .debug_ranges  0x0000000000012bb0      0xa90 drivers/usb/host/built-in.o
 .debug_ranges  0x0000000000013640      0xe00 fs/built-in.o
 .debug_ranges  0x0000000000014440     0x2160 lib/built-in.o
 .debug_ranges  0x00000000000165a0      0xc40 net/built-in.o
